
========================================================================

** ELF Header Information

    File Name: C:\Users\flyaudio6\Desktop\F103C8\MDK-ARM\Obj\Project.axf

    Machine class: ELFCLASS32 (32-bit)
    Data encoding: ELFDATA2LSB (Little endian)
    Header version: EV_CURRENT (Current version)
    Operating System ABI: none
    ABI Version: 0
    File Type: ET_EXEC (Executable) (2)
    Machine: EM_ARM (ARM)

    Image Entry point: 0x080000ed
    Flags: EF_ARM_HASENTRY + EF_ARM_ABI_FLOAT_SOFT (0x05000202)

    ARM ELF revision: 5 (ABI version 2)

    Conforms to Soft float procedure-call standard

    Built with
    Component: ARM Compiler 5.06 update 6 (build 750) Tool: armasm [4d35ec]
    Component: ARM Compiler 5.06 update 6 (build 750) Tool: armlink [4d35ed]

    Header size: 52 bytes (0x34)
    Program header entry size: 32 bytes (0x20)
    Section header entry size: 40 bytes (0x28)

    Program header entries: 1
    Section header entries: 16

    Program header offset: 425704 (0x00067ee8)
    Section header offset: 425736 (0x00067f08)

    Section header string table index: 15

========================================================================

** Program header #0 (PT_LOAD) [PF_X + PF_W + PF_R + PF_ARM_ENTRY]
    Size : 22696 bytes (10196 bytes in file)
    Virtual address: 0x08000000 (Alignment 8)


========================================================================

** Section #1 'ER_IROM1' (SHT_PROGBITS) [SHF_ALLOC + SHF_EXECINSTR]
    Size   : 10104 bytes (alignment 4)
    Address: 0x08000000

    $d.realdata
    RESET
    __Vectors
        0x08000000:    20003130    01.     DCD    536883504
        0x08000004:    08000255    U...    DCD    134218325
        0x08000008:    08000d47    G...    DCD    134221127
        0x0800000c:    08000d09    ....    DCD    134221065
        0x08000010:    08000d45    E...    DCD    134221125
        0x08000014:    08000409    ....    DCD    134218761
        0x08000018:    08001879    y...    DCD    134223993
        0x0800001c:    00000000    ....    DCD    0
        0x08000020:    00000000    ....    DCD    0
        0x08000024:    00000000    ....    DCD    0
        0x08000028:    00000000    ....    DCD    0
        0x0800002c:    08000169    i...    DCD    134218089
        0x08000030:    08000bd1    ....    DCD    134220753
        0x08000034:    00000000    ....    DCD    0
        0x08000038:    080001f1    ....    DCD    134218225
        0x0800003c:    08000241    A...    DCD    134218305
        0x08000040:    0800026f    o...    DCD    134218351
        0x08000044:    0800026f    o...    DCD    134218351
        0x08000048:    0800026f    o...    DCD    134218351
        0x0800004c:    0800026f    o...    DCD    134218351
        0x08000050:    0800026f    o...    DCD    134218351
        0x08000054:    0800026f    o...    DCD    134218351
        0x08000058:    0800026f    o...    DCD    134218351
        0x0800005c:    0800026f    o...    DCD    134218351
        0x08000060:    0800026f    o...    DCD    134218351
        0x08000064:    08000bef    ....    DCD    134220783
        0x08000068:    0800026f    o...    DCD    134218351
        0x0800006c:    0800026f    o...    DCD    134218351
        0x08000070:    08000931    1...    DCD    134220081
        0x08000074:    0800026f    o...    DCD    134218351
        0x08000078:    08000959    Y...    DCD    134220121
        0x0800007c:    08000985    ....    DCD    134220165
        0x08000080:    0800026f    o...    DCD    134218351
        0x08000084:    080009b5    ....    DCD    134220213
        0x08000088:    0800026f    o...    DCD    134218351
        0x0800008c:    0800026f    o...    DCD    134218351
        0x08000090:    0800180d    ....    DCD    134223885
        0x08000094:    0800026f    o...    DCD    134218351
        0x08000098:    0800026f    o...    DCD    134218351
        0x0800009c:    0800026f    o...    DCD    134218351
        0x080000a0:    0800026f    o...    DCD    134218351
        0x080000a4:    0800026f    o...    DCD    134218351
        0x080000a8:    0800026f    o...    DCD    134218351
        0x080000ac:    0800026f    o...    DCD    134218351
        0x080000b0:    08000fe5    ....    DCD    134221797
        0x080000b4:    0800026f    o...    DCD    134218351
        0x080000b8:    08000ff5    ....    DCD    134221813
        0x080000bc:    0800026f    o...    DCD    134218351
        0x080000c0:    0800026f    o...    DCD    134218351
        0x080000c4:    0800026f    o...    DCD    134218351
        0x080000c8:    0800026f    o...    DCD    134218351
        0x080000cc:    0800026f    o...    DCD    134218351
        0x080000d0:    0800026f    o...    DCD    134218351
        0x080000d4:    08001009    ....    DCD    134221833
        0x080000d8:    0800108d    ....    DCD    134221965
        0x080000dc:    08001111    ....    DCD    134222097
        0x080000e0:    08000bd3    ....    DCD    134220755
        0x080000e4:    0800026f    o...    DCD    134218351
        0x080000e8:    0800026f    o...    DCD    134218351
    $t
    .ARM.Collect$$$$00000000
    .ARM.Collect$$$$00000001
    __Vectors_End
    __main
    _main_stk
        0x080000ec:    f8dfd00c    ....    LDR      sp,__lit__00000000 ; [0x80000fc] = 0x20003130
    .ARM.Collect$$$$00000004
    _main_scatterload
        0x080000f0:    f000f8f4    ....    BL       __scatterload ; 0x80002dc
    .ARM.Collect$$$$00000008
    .ARM.Collect$$$$0000000A
    .ARM.Collect$$$$0000000B
    __main_after_scatterload
    _main_clock
    _main_cpp_init
    _main_init
        0x080000f4:    4800        .H      LDR      r0,[pc,#0] ; [0x80000f8] = 0x8001e21
        0x080000f6:    4700        .G      BX       r0
    $d
        0x080000f8:    08001e21    !...    DCD    134225441
    .ARM.Collect$$$$00002712
    __lit__00000000
    .ARM.Collect$$$$0000000D
    .ARM.Collect$$$$0000000F
    __rt_final_cpp
    __rt_final_exit
        0x080000fc:    20003130    01.     DCD    536883504
    $t
    .emb_text
    rt_set_PSP
        0x08000100:    f3808809    ....    MSR      PSP,r0
        0x08000104:    4770        pG      BX       lr
    rt_get_PSP
        0x08000106:    f3ef8009    ....    MRS      r0,PSP
        0x0800010a:    4770        pG      BX       lr
    os_set_env
        0x0800010c:    4668        hF      MOV      r0,sp
        0x0800010e:    f3808809    ....    MSR      PSP,r0
        0x08000112:    4804        .H      LDR      r0,[pc,#16] ; [0x8000124] = 0x800273c
        0x08000114:    7800        .x      LDRB     r0,[r0,#0]
        0x08000116:    07c0        ..      LSLS     r0,r0,#31
        0x08000118:    bf14        ..      ITE      NE
        0x0800011a:    2002        .       MOVNE    r0,#2
        0x0800011c:    2003        .       MOVEQ    r0,#3
        0x0800011e:    f3808814    ....    MSR      CONTROL,r0
        0x08000122:    4770        pG      BX       lr
    $d
        0x08000124:    0800273c    <'..    DCD    134227772
    $t
    _alloc_box
        0x08000128:    f8dfc018    ....    LDR      r12,[pc,#24] ; [0x8000144] = 0x8001e79
        0x0800012c:    f3ef8305    ....    MRS      r3,IPSR
        0x08000130:    061b        ..      LSLS     r3,r3,#24
        0x08000132:    bf18        ..      IT       NE
        0x08000134:    4760        `G      BXNE     r12
        0x08000136:    f3ef8314    ....    MRS      r3,CONTROL
        0x0800013a:    07db        ..      LSLS     r3,r3,#31
        0x0800013c:    bf08        ..      IT       EQ
        0x0800013e:    4760        `G      BXEQ     r12
        0x08000140:    df00        ..      SVC      #0x0 ; formerly SWI
        0x08000142:    4770        pG      BX       lr
    $d
        0x08000144:    08001e79    y...    DCD    134225529
    $t
    _free_box
        0x08000148:    f8dfc018    ....    LDR      r12,[pc,#24] ; [0x8000164] = 0x800203d
        0x0800014c:    f3ef8305    ....    MRS      r3,IPSR
        0x08000150:    061b        ..      LSLS     r3,r3,#24
        0x08000152:    bf18        ..      IT       NE
        0x08000154:    4760        `G      BXNE     r12
        0x08000156:    f3ef8314    ....    MRS      r3,CONTROL
        0x0800015a:    07db        ..      LSLS     r3,r3,#31
        0x0800015c:    bf08        ..      IT       EQ
        0x0800015e:    4760        `G      BXEQ     r12
        0x08000160:    df00        ..      SVC      #0x0 ; formerly SWI
        0x08000162:    4770        pG      BX       lr
    $d
        0x08000164:    0800203d    = ..    DCD    134225981
    $t
    SVC_Handler
        0x08000168:    f3ef8009    ....    MRS      r0,PSP
        0x0800016c:    6981        .i      LDR      r1,[r0,#0x18]
        0x0800016e:    f8111c02    ....    LDRB     r1,[r1,#-2]
        0x08000172:    bb39        9.      CBNZ     r1,0x80001c4 ; SVC_Handler + 92
        0x08000174:    e890100f    ....    LDM      r0,{r0-r3,r12}
        0x08000178:    47e0        .G      BLX      r12
        0x0800017a:    f3ef8c09    ....    MRS      r12,PSP
        0x0800017e:    4b19        .K      LDR      r3,[pc,#100] ; [0x80001e4] = 0x20000044
        0x08000180:    e8930006    ....    LDM      r3,{r1,r2}
        0x08000184:    4291        .B      CMP      r1,r2
        0x08000186:    d018        ..      BEQ      0x80001ba ; SVC_Handler + 82
        0x08000188:    b159        Y.      CBZ      r1,0x80001a2 ; SVC_Handler + 58
        0x0800018a:    b40c        ..      PUSH     {r2,r3}
        0x0800018c:    f04f0301    O...    MOV      r3,#1
        0x08000190:    f8813026    ..&0    STRB     r3,[r1,#0x26]
        0x08000194:    e92c0ff0    ,...    STMDB    r12!,{r4-r11}
        0x08000198:    f8c1c02c    ..,.    STR      r12,[r1,#0x2c]
        0x0800019c:    f002f91c    ....    BL       rt_stk_check ; 0x80023d8
        0x080001a0:    bc0c        ..      POP      {r2,r3}
        0x080001a2:    601a        .`      STR      r2,[r3,#0]
        0x080001a4:    f8d2c02c    ..,.    LDR      r12,[r2,#0x2c]
        0x080001a8:    e8bc0ff0    ....    LDM      r12!,{r4-r11}
        0x080001ac:    f8923026    ..&0    LDRB     r3,[r2,#0x26]
        0x080001b0:    f38c8809    ....    MSR      PSP,r12
        0x080001b4:    b11b        ..      CBZ      r3,0x80001be ; SVC_Handler + 86
        0x080001b6:    f8920025    ..%.    LDRB     r0,[r2,#0x25]
        0x080001ba:    f8cc0000    ....    STR      r0,[r12,#0]
        0x080001be:    f06f0e02    o...    MVN      lr,#2
        0x080001c2:    4770        pG      BX       lr
        0x080001c4:    b510        ..      PUSH     {r4,lr}
        0x080001c6:    4a08        .J      LDR      r2,[pc,#32] ; [0x80001e8] = 0x8000340
        0x080001c8:    6812        .h      LDR      r2,[r2,#0]
        0x080001ca:    4291        .B      CMP      r1,r2
        0x080001cc:    d809        ..      BHI      0x80001e2 ; SVC_Handler + 122
        0x080001ce:    4c07        .L      LDR      r4,[pc,#28] ; [0x80001ec] = 0x8000340
        0x080001d0:    f8544021    T.!@    LDR      r4,[r4,r1,LSL #2]
        0x080001d4:    e890100f    ....    LDM      r0,{r0-r3,r12}
        0x080001d8:    47a0        .G      BLX      r4
        0x080001da:    f3ef8c09    ....    MRS      r12,PSP
        0x080001de:    e88c000f    ....    STM      r12,{r0-r3}
        0x080001e2:    bd10        ..      POP      {r4,pc}
    $d
        0x080001e4:    20000044    D..     DCD    536870980
        0x080001e8:    08000340    @...    DCD    134218560
        0x080001ec:    08000340    @...    DCD    134218560
    $t
    PendSV_Handler
        0x080001f0:    f001ffde    ....    BL       rt_pop_req ; 0x80021b0
        0x080001f4:    4b11        .K      LDR      r3,[pc,#68] ; [0x800023c] = 0x20000044
        0x080001f6:    e8930006    ....    LDM      r3,{r1,r2}
        0x080001fa:    4291        .B      CMP      r1,r2
        0x080001fc:    d01b        ..      BEQ      0x8000236 ; PendSV_Handler + 70
        0x080001fe:    b40c        ..      PUSH     {r2,r3}
        0x08000200:    f04f0300    O...    MOV      r3,#0
        0x08000204:    f8813026    ..&0    STRB     r3,[r1,#0x26]
        0x08000208:    f3ef8c09    ....    MRS      r12,PSP
        0x0800020c:    e92c0ff0    ,...    STMDB    r12!,{r4-r11}
        0x08000210:    f8c1c02c    ..,.    STR      r12,[r1,#0x2c]
        0x08000214:    f002f8e0    ....    BL       rt_stk_check ; 0x80023d8
        0x08000218:    bc0c        ..      POP      {r2,r3}
        0x0800021a:    601a        .`      STR      r2,[r3,#0]
        0x0800021c:    f8d2c02c    ..,.    LDR      r12,[r2,#0x2c]
        0x08000220:    e8bc0ff0    ....    LDM      r12!,{r4-r11}
        0x08000224:    f38c8809    ....    MSR      PSP,r12
        0x08000228:    f8923026    ..&0    LDRB     r3,[r2,#0x26]
        0x0800022c:    b11b        ..      CBZ      r3,0x8000236 ; PendSV_Handler + 70
        0x0800022e:    f8923025    ..%0    LDRB     r3,[r2,#0x25]
        0x08000232:    f8cc3000    ...0    STR      r3,[r12,#0]
        0x08000236:    f06f0e02    o...    MVN      lr,#2
        0x0800023a:    4770        pG      BX       lr
    $d
        0x0800023c:    20000044    D..     DCD    536870980
    $t
    SysTick_Handler
        0x08000240:    f002f9be    ....    BL       rt_systick ; 0x80025c0
        0x08000244:    e7d6        ..      B        0x80001f4 ; PendSV_Handler + 4
    $d
        0x08000246:    0000        ..      DCW    0
    $t
    OS_Tick_Handler
        0x08000248:    f001fe14    ....    BL       os_tick_irqack ; 0x8001e74
        0x0800024c:    f002f9b8    ....    BL       rt_systick ; 0x80025c0
        0x08000250:    e7d0        ..      B        0x80001f4 ; PendSV_Handler + 4
    $d
        0x08000252:    0000        ..      DCW    0
    $t
    .text
    Reset_Handler
        0x08000254:    4806        .H      LDR      r0,[pc,#24] ; [0x8000270] = 0x8000ef5
        0x08000256:    4780        .G      BLX      r0
        0x08000258:    4806        .H      LDR      r0,[pc,#24] ; [0x8000274] = 0x80000ed
        0x0800025a:    4700        .G      BX       r0
        0x0800025c:    e7fe        ..      B        0x800025c ; Reset_Handler + 8
        0x0800025e:    e7fe        ..      B        0x800025e ; Reset_Handler + 10
        0x08000260:    e7fe        ..      B        0x8000260 ; Reset_Handler + 12
        0x08000262:    e7fe        ..      B        0x8000262 ; Reset_Handler + 14
        0x08000264:    e7fe        ..      B        0x8000264 ; Reset_Handler + 16
        0x08000266:    e7fe        ..      B        0x8000266 ; Reset_Handler + 18
        0x08000268:    e7fe        ..      B        0x8000268 ; Reset_Handler + 20
        0x0800026a:    e7fe        ..      B        0x800026a ; Reset_Handler + 22
        0x0800026c:    e7fe        ..      B        0x800026c ; Reset_Handler + 24
    ADC1_2_IRQHandler
    CAN1_RX1_IRQHandler
    CAN1_SCE_IRQHandler
    DMA1_Channel1_IRQHandler
    DMA1_Channel3_IRQHandler
    DMA1_Channel6_IRQHandler
    EXTI0_IRQHandler
    EXTI1_IRQHandler
    EXTI2_IRQHandler
    EXTI4_IRQHandler
    EXTI9_5_IRQHandler
    FLASH_IRQHandler
    I2C1_ER_IRQHandler
    I2C1_EV_IRQHandler
    I2C2_ER_IRQHandler
    I2C2_EV_IRQHandler
    PVD_IRQHandler
    RCC_IRQHandler
    RTCAlarm_IRQHandler
    RTC_IRQHandler
    SPI1_IRQHandler
    SPI2_IRQHandler
    TAMPER_IRQHandler
    TIM1_BRK_IRQHandler
    TIM1_CC_IRQHandler
    TIM1_TRG_COM_IRQHandler
    TIM1_UP_IRQHandler
    TIM3_IRQHandler
    USBWakeUp_IRQHandler
    USB_HP_CAN1_TX_IRQHandler
    WWDG_IRQHandler
        0x0800026e:    e7fe        ..      B        ADC1_2_IRQHandler ; 0x800026e
    $d
        0x08000270:    08000ef5    ....    DCD    134221557
        0x08000274:    080000ed    ....    DCD    134217965
    $t
    .text
    __aeabi_uldivmod
        0x08000278:    e92d5ff0    -.._    PUSH     {r4-r12,lr}
        0x0800027c:    4605        .F      MOV      r5,r0
        0x0800027e:    2000        .       MOVS     r0,#0
        0x08000280:    4692        .F      MOV      r10,r2
        0x08000282:    469b        .F      MOV      r11,r3
        0x08000284:    4688        .F      MOV      r8,r1
        0x08000286:    4606        .F      MOV      r6,r0
        0x08000288:    4681        .F      MOV      r9,r0
        0x0800028a:    2440        @$      MOVS     r4,#0x40
        0x0800028c:    e01b        ..      B        0x80002c6 ; __aeabi_uldivmod + 78
        0x0800028e:    4628        (F      MOV      r0,r5
        0x08000290:    4641        AF      MOV      r1,r8
        0x08000292:    4647        GF      MOV      r7,r8
        0x08000294:    4622        "F      MOV      r2,r4
        0x08000296:    f000f842    ..B.    BL       __aeabi_llsr ; 0x800031e
        0x0800029a:    4653        SF      MOV      r3,r10
        0x0800029c:    465a        ZF      MOV      r2,r11
        0x0800029e:    1ac0        ..      SUBS     r0,r0,r3
        0x080002a0:    4191        .A      SBCS     r1,r1,r2
        0x080002a2:    d310        ..      BCC      0x80002c6 ; __aeabi_uldivmod + 78
        0x080002a4:    4611        .F      MOV      r1,r2
        0x080002a6:    4618        .F      MOV      r0,r3
        0x080002a8:    4622        "F      MOV      r2,r4
        0x080002aa:    f000f829    ..).    BL       __aeabi_llsl ; 0x8000300
        0x080002ae:    1a2d        -.      SUBS     r5,r5,r0
        0x080002b0:    eb670801    g...    SBC      r8,r7,r1
        0x080002b4:    464f        OF      MOV      r7,r9
        0x080002b6:    4622        "F      MOV      r2,r4
        0x080002b8:    2001        .       MOVS     r0,#1
        0x080002ba:    2100        .!      MOVS     r1,#0
        0x080002bc:    f000f820    .. .    BL       __aeabi_llsl ; 0x8000300
        0x080002c0:    eb170900    ....    ADDS     r9,r7,r0
        0x080002c4:    414e        NA      ADCS     r6,r6,r1
        0x080002c6:    1e20         .      SUBS     r0,r4,#0
        0x080002c8:    f1a40401    ....    SUB      r4,r4,#1
        0x080002cc:    dcdf        ..      BGT      0x800028e ; __aeabi_uldivmod + 22
        0x080002ce:    4648        HF      MOV      r0,r9
        0x080002d0:    4631        1F      MOV      r1,r6
        0x080002d2:    462a        *F      MOV      r2,r5
        0x080002d4:    4643        CF      MOV      r3,r8
        0x080002d6:    e8bd9ff0    ....    POP      {r4-r12,pc}
        0x080002da:    0000        ..      MOVS     r0,r0
    .text
    __scatterload
    __scatterload_rt2
        0x080002dc:    4c06        .L      LDR      r4,[pc,#24] ; [0x80002f8] = 0x8002758
        0x080002de:    4d07        .M      LDR      r5,[pc,#28] ; [0x80002fc] = 0x8002778
        0x080002e0:    e006        ..      B        0x80002f0 ; __scatterload + 20
        0x080002e2:    68e0        .h      LDR      r0,[r4,#0xc]
        0x080002e4:    f0400301    @...    ORR      r3,r0,#1
        0x080002e8:    e8940007    ....    LDM      r4,{r0-r2}
        0x080002ec:    4798        .G      BLX      r3
        0x080002ee:    3410        .4      ADDS     r4,r4,#0x10
        0x080002f0:    42ac        .B      CMP      r4,r5
        0x080002f2:    d3f6        ..      BCC      0x80002e2 ; __scatterload + 6
        0x080002f4:    f7fffefe    ....    BL       __main_after_scatterload ; 0x80000f4
    $d
        0x080002f8:    08002758    X'..    DCD    134227800
        0x080002fc:    08002778    x'..    DCD    134227832
    $t
    .text
    __aeabi_llsl
    _ll_shift_l
        0x08000300:    2a20         *      CMP      r2,#0x20
        0x08000302:    db04        ..      BLT      0x800030e ; __aeabi_llsl + 14
        0x08000304:    3a20         :      SUBS     r2,r2,#0x20
        0x08000306:    fa00f102    ....    LSL      r1,r0,r2
        0x0800030a:    2000        .       MOVS     r0,#0
        0x0800030c:    4770        pG      BX       lr
        0x0800030e:    4091        .@      LSLS     r1,r1,r2
        0x08000310:    f1c20320    .. .    RSB      r3,r2,#0x20
        0x08000314:    fa20f303     ...    LSR      r3,r0,r3
        0x08000318:    4319        .C      ORRS     r1,r1,r3
        0x0800031a:    4090        .@      LSLS     r0,r0,r2
        0x0800031c:    4770        pG      BX       lr
    .text
    __aeabi_llsr
    _ll_ushift_r
        0x0800031e:    2a20         *      CMP      r2,#0x20
        0x08000320:    db04        ..      BLT      0x800032c ; __aeabi_llsr + 14
        0x08000322:    3a20         :      SUBS     r2,r2,#0x20
        0x08000324:    fa21f002    !...    LSR      r0,r1,r2
        0x08000328:    2100        .!      MOVS     r1,#0
        0x0800032a:    4770        pG      BX       lr
        0x0800032c:    fa21f302    !...    LSR      r3,r1,r2
        0x08000330:    40d0        .@      LSRS     r0,r0,r2
        0x08000332:    f1c20220    .. .    RSB      r2,r2,#0x20
        0x08000336:    4091        .@      LSLS     r1,r1,r2
        0x08000338:    4308        .C      ORRS     r0,r0,r1
        0x0800033a:    4619        .F      MOV      r1,r3
        0x0800033c:    4770        pG      BX       lr
        0x0800033e:    0000        ..      MOVS     r0,r0
    $d
    SVC_TABLE
    SVC_Count
        0x08000340:    00000000    ....    DCD    0
    $t
    i.AppTaskLED
    AppTaskLED
    SVC_Table
        0x08000344:    2064        d       MOVS     r0,#0x64
        0x08000346:    f8dfc008    ....    LDR      r12,[pc,#8] ; [0x8000350] = 0x8001fe5
        0x0800034a:    df00        ..      SVC      #0x0 ; formerly SWI
        0x0800034c:    e7fa        ..      B        AppTaskLED ; 0x8000344
    $d
        0x0800034e:    0000        ..      DCW    0
        0x08000350:    08001fe5    ....    DCD    134225893
    $t
    i.AppTaskStart
    AppTaskStart
        0x08000354:    2300        .#      MOVS     r3,#0
        0x08000356:    4a15        .J      LDR      r2,[pc,#84] ; [0x80003ac] = 0x20000060
        0x08000358:    4915        .I      LDR      r1,[pc,#84] ; [0x80003b0] = 0x80007
        0x0800035a:    4816        .H      LDR      r0,[pc,#88] ; [0x80003b4] = 0x8000345
        0x0800035c:    f8dfc058    ..X.    LDR      r12,[pc,#88] ; [0x80003b8] = 0x8002645
        0x08000360:    df00        ..      SVC      #0x0 ; formerly SWI
        0x08000362:    4c16        .L      LDR      r4,[pc,#88] ; [0x80003bc] = 0x20000000
        0x08000364:    2300        .#      MOVS     r3,#0
        0x08000366:    4a16        .J      LDR      r2,[pc,#88] ; [0x80003c0] = 0x20001060
        0x08000368:    6020         `      STR      r0,[r4,#0]
        0x0800036a:    4916        .I      LDR      r1,[pc,#88] ; [0x80003c4] = 0x40003
        0x0800036c:    4816        .H      LDR      r0,[pc,#88] ; [0x80003c8] = 0x80003f9
        0x0800036e:    f8dfc048    ..H.    LDR      r12,[pc,#72] ; [0x80003b8] = 0x8002645
        0x08000372:    df00        ..      SVC      #0x0 ; formerly SWI
        0x08000374:    6060        ``      STR      r0,[r4,#4]
        0x08000376:    2300        .#      MOVS     r3,#0
        0x08000378:    4a14        .J      LDR      r2,[pc,#80] ; [0x80003cc] = 0x20001460
        0x0800037a:    4915        .I      LDR      r1,[pc,#84] ; [0x80003d0] = 0x80006
        0x0800037c:    4815        .H      LDR      r0,[pc,#84] ; [0x80003d4] = 0x80003e9
        0x0800037e:    f8dfc038    ..8.    LDR      r12,[pc,#56] ; [0x80003b8] = 0x8002645
        0x08000382:    df00        ..      SVC      #0x0 ; formerly SWI
        0x08000384:    60a0        .`      STR      r0,[r4,#8]
        0x08000386:    2100        .!      MOVS     r1,#0
        0x08000388:    4813        .H      LDR      r0,[pc,#76] ; [0x80003d8] = 0x20000034
        0x0800038a:    f8dfc050    ..P.    LDR      r12,[pc,#80] ; [0x80003dc] = 0x8002399
        0x0800038e:    df00        ..      SVC      #0x0 ; formerly SWI
        0x08000390:    4c13        .L      LDR      r4,[pc,#76] ; [0x80003e0] = 0x40011000
        0x08000392:    bf00        ..      NOP      
        0x08000394:    f000f8ae    ....    BL       CAN_CMD_TX ; 0x80004f4
        0x08000398:    68e0        .h      LDR      r0,[r4,#0xc]
        0x0800039a:    f4805000    ...P    EOR      r0,r0,#0x2000
        0x0800039e:    60e0        .`      STR      r0,[r4,#0xc]
        0x080003a0:    f44f70fa    O..p    MOV      r0,#0x1f4
        0x080003a4:    f8dfc03c    ..<.    LDR      r12,[pc,#60] ; [0x80003e4] = 0x8001fe5
        0x080003a8:    df00        ..      SVC      #0x0 ; formerly SWI
        0x080003aa:    e7f3        ..      B        0x8000394 ; AppTaskStart + 64
    $d
        0x080003ac:    20000060    `..     DCD    536871008
        0x080003b0:    00080007    ....    DCD    524295
        0x080003b4:    08000345    E...    DCD    134218565
        0x080003b8:    08002645    E&..    DCD    134227525
        0x080003bc:    20000000    ...     DCD    536870912
        0x080003c0:    20001060    `..     DCD    536875104
        0x080003c4:    00040003    ....    DCD    262147
        0x080003c8:    080003f9    ....    DCD    134218745
        0x080003cc:    20001460    `..     DCD    536876128
        0x080003d0:    00080006    ....    DCD    524294
        0x080003d4:    080003e9    ....    DCD    134218729
        0x080003d8:    20000034    4..     DCD    536870964
        0x080003dc:    08002399    .#..    DCD    134226841
        0x080003e0:    40011000    ...@    DCD    1073811456
        0x080003e4:    08001fe5    ....    DCD    134225893
    $t
    i.AppTaskUSART_RX
    AppTaskUSART_RX
        0x080003e8:    200a        .       MOVS     r0,#0xa
        0x080003ea:    f8dfc008    ....    LDR      r12,[pc,#8] ; [0x80003f4] = 0x8001fe5
        0x080003ee:    df00        ..      SVC      #0x0 ; formerly SWI
        0x080003f0:    e7fa        ..      B        AppTaskUSART_RX ; 0x80003e8
    $d
        0x080003f2:    0000        ..      DCW    0
        0x080003f4:    08001fe5    ....    DCD    134225893
    $t
    i.AppTaskUSART_TX
    AppTaskUSART_TX
        0x080003f8:    201e        .       MOVS     r0,#0x1e
        0x080003fa:    f8dfc008    ....    LDR      r12,[pc,#8] ; [0x8000404] = 0x8001fe5
        0x080003fe:    df00        ..      SVC      #0x0 ; formerly SWI
        0x08000400:    e7fa        ..      B        AppTaskUSART_TX ; 0x80003f8
    $d
        0x08000402:    0000        ..      DCW    0
        0x08000404:    08001fe5    ....    DCD    134225893
    $t
    i.BusFault_Handler
    BusFault_Handler
        0x08000408:    e7fe        ..      B        BusFault_Handler ; 0x8000408
        0x0800040a:    0000        ..      MOVS     r0,r0
    i.CAN1_Init
    CAN1_Init
        0x0800040c:    b570        p.      PUSH     {r4-r6,lr}
        0x0800040e:    b08a        ..      SUB      sp,sp,#0x28
        0x08000410:    2101        .!      MOVS     r1,#1
        0x08000412:    2005        .       MOVS     r0,#5
        0x08000414:    f000fd00    ....    BL       RCC_APB2PeriphClockCmd ; 0x8000e18
        0x08000418:    2101        .!      MOVS     r1,#1
        0x0800041a:    0648        H.      LSLS     r0,r1,#25
        0x0800041c:    f000fce4    ....    BL       RCC_APB1PeriphClockCmd ; 0x8000de8
        0x08000420:    2018        .       MOVS     r0,#0x18
        0x08000422:    f88d001f    ....    STRB     r0,[sp,#0x1f]
        0x08000426:    2403        .$      MOVS     r4,#3
        0x08000428:    f88d401e    ...@    STRB     r4,[sp,#0x1e]
        0x0800042c:    f44f5080    O..P    MOV      r0,#0x1000
        0x08000430:    4d2e        .M      LDR      r5,[pc,#184] ; [0x80004ec] = 0x40010800
        0x08000432:    f8ad001c    ....    STRH     r0,[sp,#0x1c]
        0x08000436:    a907        ..      ADD      r1,sp,#0x1c
        0x08000438:    4628        (F      MOV      r0,r5
        0x0800043a:    f000fc0e    ....    BL       GPIO_Init ; 0x8000c5a
        0x0800043e:    2048        H       MOVS     r0,#0x48
        0x08000440:    f88d001f    ....    STRB     r0,[sp,#0x1f]
        0x08000444:    f88d401e    ...@    STRB     r4,[sp,#0x1e]
        0x08000448:    14e8        ..      ASRS     r0,r5,#19
        0x0800044a:    f8ad001c    ....    STRH     r0,[sp,#0x1c]
        0x0800044e:    a907        ..      ADD      r1,sp,#0x1c
        0x08000450:    4628        (F      MOV      r0,r5
        0x08000452:    f000fc02    ....    BL       GPIO_Init ; 0x8000c5a
        0x08000456:    4e26        &N      LDR      r6,[pc,#152] ; [0x80004f0] = 0x40006400
        0x08000458:    4630        0F      MOV      r0,r6
        0x0800045a:    f000f86b    ..k.    BL       CAN_DeInit ; 0x8000534
        0x0800045e:    4668        hF      MOV      r0,sp
        0x08000460:    f000f9e7    ....    BL       CAN_StructInit ; 0x8000832
        0x08000464:    2400        .$      MOVS     r4,#0
        0x08000466:    2501        .%      MOVS     r5,#1
        0x08000468:    f88d4006    ...@    STRB     r4,[sp,#6]
        0x0800046c:    f88d5007    ...P    STRB     r5,[sp,#7]
        0x08000470:    2104        .!      MOVS     r1,#4
        0x08000472:    2002        .       MOVS     r0,#2
        0x08000474:    f88d4002    ...@    STRB     r4,[sp,#2]
        0x08000478:    f88d0004    ....    STRB     r0,[sp,#4]
        0x0800047c:    f88d5008    ...P    STRB     r5,[sp,#8]
        0x08000480:    f8ad1000    ....    STRH     r1,[sp,#0]
        0x08000484:    f88d4009    ...@    STRB     r4,[sp,#9]
        0x08000488:    f88d1005    ....    STRB     r1,[sp,#5]
        0x0800048c:    f88d400a    ...@    STRB     r4,[sp,#0xa]
        0x08000490:    f88d5003    ...P    STRB     r5,[sp,#3]
        0x08000494:    4669        iF      MOV      r1,sp
        0x08000496:    4630        0F      MOV      r0,r6
        0x08000498:    f000f8ea    ....    BL       CAN_Init ; 0x8000670
        0x0800049c:    f88d4016    ...@    STRB     r4,[sp,#0x16]
        0x080004a0:    f88d4017    ...@    STRB     r4,[sp,#0x17]
        0x080004a4:    f88d5018    ...P    STRB     r5,[sp,#0x18]
        0x080004a8:    f8ad400c    ...@    STRH     r4,[sp,#0xc]
        0x080004ac:    f8ad4010    ...@    STRH     r4,[sp,#0x10]
        0x080004b0:    f8ad4014    ...@    STRH     r4,[sp,#0x14]
        0x080004b4:    f88d5019    ...P    STRB     r5,[sp,#0x19]
        0x080004b8:    f8ad400e    ...@    STRH     r4,[sp,#0xe]
        0x080004bc:    f8ad4012    ...@    STRH     r4,[sp,#0x12]
        0x080004c0:    a803        ..      ADD      r0,sp,#0xc
        0x080004c2:    f000f855    ..U.    BL       CAN_FilterInit ; 0x8000570
        0x080004c6:    2014        .       MOVS     r0,#0x14
        0x080004c8:    f88d0020    .. .    STRB     r0,[sp,#0x20]
        0x080004cc:    f88d4021    ..!@    STRB     r4,[sp,#0x21]
        0x080004d0:    f88d4022    .."@    STRB     r4,[sp,#0x22]
        0x080004d4:    f88d5023    ..#P    STRB     r5,[sp,#0x23]
        0x080004d8:    a808        ..      ADD      r0,sp,#0x20
        0x080004da:    f000fc35    ..5.    BL       NVIC_Init ; 0x8000d48
        0x080004de:    2201        ."      MOVS     r2,#1
        0x080004e0:    2102        .!      MOVS     r1,#2
        0x080004e2:    4630        0F      MOV      r0,r6
        0x080004e4:    f000f8bc    ....    BL       CAN_ITConfig ; 0x8000660
        0x080004e8:    b00a        ..      ADD      sp,sp,#0x28
        0x080004ea:    bd70        p.      POP      {r4-r6,pc}
    $d
        0x080004ec:    40010800    ...@    DCD    1073809408
        0x080004f0:    40006400    .d.@    DCD    1073767424
    $t
    i.CAN_CMD_TX
    CAN_CMD_TX
        0x080004f4:    480d        .H      LDR      r0,[pc,#52] ; [0x800052c] = 0x20002ca0
        0x080004f6:    f2402101    @..!    MOV      r1,#0x201
        0x080004fa:    2208        ."      MOVS     r2,#8
        0x080004fc:    6001        .`      STR      r1,[r0,#0]
        0x080004fe:    2100        .!      MOVS     r1,#0
        0x08000500:    7201        .r      STRB     r1,[r0,#8]
        0x08000502:    7241        Ar      STRB     r1,[r0,#9]
        0x08000504:    7282        .r      STRB     r2,[r0,#0xa]
        0x08000506:    72c1        .r      STRB     r1,[r0,#0xb]
        0x08000508:    2101        .!      MOVS     r1,#1
        0x0800050a:    7301        .s      STRB     r1,[r0,#0xc]
        0x0800050c:    2102        .!      MOVS     r1,#2
        0x0800050e:    7341        As      STRB     r1,[r0,#0xd]
        0x08000510:    2103        .!      MOVS     r1,#3
        0x08000512:    7381        .s      STRB     r1,[r0,#0xe]
        0x08000514:    2104        .!      MOVS     r1,#4
        0x08000516:    73c1        .s      STRB     r1,[r0,#0xf]
        0x08000518:    2105        .!      MOVS     r1,#5
        0x0800051a:    7401        .t      STRB     r1,[r0,#0x10]
        0x0800051c:    2106        .!      MOVS     r1,#6
        0x0800051e:    7441        At      STRB     r1,[r0,#0x11]
        0x08000520:    2107        .!      MOVS     r1,#7
        0x08000522:    7481        .t      STRB     r1,[r0,#0x12]
        0x08000524:    4601        .F      MOV      r1,r0
        0x08000526:    4802        .H      LDR      r0,[pc,#8] ; [0x8000530] = 0x40006400
        0x08000528:    f000b994    ....    B.W      CAN_Transmit ; 0x8000854
    $d
        0x0800052c:    20002ca0    .,.     DCD    536882336
        0x08000530:    40006400    .d.@    DCD    1073767424
    $t
    i.CAN_DeInit
    CAN_DeInit
        0x08000534:    f1a04180    ...A    SUB      r1,r0,#0x40000000
        0x08000538:    b510        ..      PUSH     {r4,lr}
        0x0800053a:    f5b141c8    ...A    SUBS     r1,r1,#0x6400
        0x0800053e:    f04f0101    O...    MOV      r1,#1
        0x08000542:    d009        ..      BEQ      0x8000558 ; CAN_DeInit + 36
        0x08000544:    0688        ..      LSLS     r0,r1,#26
        0x08000546:    f000fc5b    ..[.    BL       RCC_APB1PeriphResetCmd ; 0x8000e00
        0x0800054a:    e8bd4010    ...@    POP      {r4,lr}
        0x0800054e:    2100        .!      MOVS     r1,#0
        0x08000550:    f04f6080    O..`    MOV      r0,#0x4000000
        0x08000554:    f000bc54    ..T.    B.W      RCC_APB1PeriphResetCmd ; 0x8000e00
        0x08000558:    f04f7000    O..p    MOV      r0,#0x2000000
        0x0800055c:    f000fc50    ..P.    BL       RCC_APB1PeriphResetCmd ; 0x8000e00
        0x08000560:    e8bd4010    ...@    POP      {r4,lr}
        0x08000564:    2100        .!      MOVS     r1,#0
        0x08000566:    f04f7000    O..p    MOV      r0,#0x2000000
        0x0800056a:    f000bc49    ..I.    B.W      RCC_APB1PeriphResetCmd ; 0x8000e00
        0x0800056e:    0000        ..      MOVS     r0,r0
    i.CAN_FilterInit
    CAN_FilterInit
        0x08000570:    b430        0.      PUSH     {r4,r5}
        0x08000572:    7a81        .z      LDRB     r1,[r0,#0xa]
        0x08000574:    4b35        5K      LDR      r3,[pc,#212] ; [0x800064c] = 0x40006600
        0x08000576:    2201        ."      MOVS     r2,#1
        0x08000578:    fa02f101    ....    LSL      r1,r2,r1
        0x0800057c:    681a        .h      LDR      r2,[r3,#0]
        0x0800057e:    f0420201    B...    ORR      r2,r2,#1
        0x08000582:    601a        .`      STR      r2,[r3,#0]
        0x08000584:    f8dfc0c8    ....    LDR      r12,[pc,#200] ; [0x8000650] = 0x4000661c
        0x08000588:    f8dc2000    ...     LDR      r2,[r12,#0]
        0x0800058c:    438a        .C      BICS     r2,r2,r1
        0x0800058e:    f8cc2000    ...     STR      r2,[r12,#0]
        0x08000592:    7b04        .{      LDRB     r4,[r0,#0xc]
        0x08000594:    4a2f        /J      LDR      r2,[pc,#188] ; [0x8000654] = 0x4000660c
        0x08000596:    b9d4        ..      CBNZ     r4,0x80005ce ; CAN_FilterInit + 94
        0x08000598:    6814        .h      LDR      r4,[r2,#0]
        0x0800059a:    438c        .C      BICS     r4,r4,r1
        0x0800059c:    6014        .`      STR      r4,[r2,#0]
        0x0800059e:    8844        D.      LDRH     r4,[r0,#2]
        0x080005a0:    88c5        ..      LDRH     r5,[r0,#6]
        0x080005a2:    ea444405    D..D    ORR      r4,r4,r5,LSL #16
        0x080005a6:    7a85        .z      LDRB     r5,[r0,#0xa]
        0x080005a8:    00ed        ..      LSLS     r5,r5,#3
        0x080005aa:    f1054580    ...E    ADD      r5,r5,#0x40000000
        0x080005ae:    f50545c0    ...E    ADD      r5,r5,#0x6000
        0x080005b2:    f8c54640    ..@F    STR      r4,[r5,#0x640]
        0x080005b6:    8804        ..      LDRH     r4,[r0,#0]
        0x080005b8:    8885        ..      LDRH     r5,[r0,#4]
        0x080005ba:    ea444405    D..D    ORR      r4,r4,r5,LSL #16
        0x080005be:    7a85        .z      LDRB     r5,[r0,#0xa]
        0x080005c0:    00ed        ..      LSLS     r5,r5,#3
        0x080005c2:    f1054580    ...E    ADD      r5,r5,#0x40000000
        0x080005c6:    f50545c0    ...E    ADD      r5,r5,#0x6000
        0x080005ca:    f8c54644    ..DF    STR      r4,[r5,#0x644]
        0x080005ce:    7b04        .{      LDRB     r4,[r0,#0xc]
        0x080005d0:    2c01        .,      CMP      r4,#1
        0x080005d2:    d118        ..      BNE      0x8000606 ; CAN_FilterInit + 150
        0x080005d4:    6814        .h      LDR      r4,[r2,#0]
        0x080005d6:    430c        .C      ORRS     r4,r4,r1
        0x080005d8:    6014        .`      STR      r4,[r2,#0]
        0x080005da:    7a84        .z      LDRB     r4,[r0,#0xa]
        0x080005dc:    6802        .h      LDR      r2,[r0,#0]
        0x080005de:    00e4        ..      LSLS     r4,r4,#3
        0x080005e0:    f1044480    ...D    ADD      r4,r4,#0x40000000
        0x080005e4:    f50444c0    ...D    ADD      r4,r4,#0x6000
        0x080005e8:    ea4f4232    O.2B    ROR      r2,r2,#16
        0x080005ec:    f8c42640    ..@&    STR      r2,[r4,#0x640]
        0x080005f0:    7a84        .z      LDRB     r4,[r0,#0xa]
        0x080005f2:    6842        Bh      LDR      r2,[r0,#4]
        0x080005f4:    00e4        ..      LSLS     r4,r4,#3
        0x080005f6:    f1044480    ...D    ADD      r4,r4,#0x40000000
        0x080005fa:    f50444c0    ...D    ADD      r4,r4,#0x6000
        0x080005fe:    ea4f4232    O.2B    ROR      r2,r2,#16
        0x08000602:    f8c42644    ..D&    STR      r2,[r4,#0x644]
        0x08000606:    7ac4        .z      LDRB     r4,[r0,#0xb]
        0x08000608:    4a13        .J      LDR      r2,[pc,#76] ; [0x8000658] = 0x40006604
        0x0800060a:    2c00        .,      CMP      r4,#0
        0x0800060c:    6814        .h      LDR      r4,[r2,#0]
        0x0800060e:    bf0c        ..      ITE      EQ
        0x08000610:    438c        .C      BICEQ    r4,r4,r1
        0x08000612:    430c        .C      ORRNE    r4,r4,r1
        0x08000614:    6014        .`      STR      r4,[r2,#0]
        0x08000616:    8904        ..      LDRH     r4,[r0,#8]
        0x08000618:    4a10        .J      LDR      r2,[pc,#64] ; [0x800065c] = 0x40006614
        0x0800061a:    b914        ..      CBNZ     r4,0x8000622 ; CAN_FilterInit + 178
        0x0800061c:    6814        .h      LDR      r4,[r2,#0]
        0x0800061e:    438c        .C      BICS     r4,r4,r1
        0x08000620:    6014        .`      STR      r4,[r2,#0]
        0x08000622:    8904        ..      LDRH     r4,[r0,#8]
        0x08000624:    2c01        .,      CMP      r4,#1
        0x08000626:    d102        ..      BNE      0x800062e ; CAN_FilterInit + 190
        0x08000628:    6814        .h      LDR      r4,[r2,#0]
        0x0800062a:    430c        .C      ORRS     r4,r4,r1
        0x0800062c:    6014        .`      STR      r4,[r2,#0]
        0x0800062e:    7b40        @{      LDRB     r0,[r0,#0xd]
        0x08000630:    2801        .(      CMP      r0,#1
        0x08000632:    d104        ..      BNE      0x800063e ; CAN_FilterInit + 206
        0x08000634:    f8dc0000    ....    LDR      r0,[r12,#0]
        0x08000638:    4308        .C      ORRS     r0,r0,r1
        0x0800063a:    f8cc0000    ....    STR      r0,[r12,#0]
        0x0800063e:    6818        .h      LDR      r0,[r3,#0]
        0x08000640:    f0200001     ...    BIC      r0,r0,#1
        0x08000644:    6018        .`      STR      r0,[r3,#0]
        0x08000646:    bc30        0.      POP      {r4,r5}
        0x08000648:    4770        pG      BX       lr
    $d
        0x0800064a:    0000        ..      DCW    0
        0x0800064c:    40006600    .f.@    DCD    1073767936
        0x08000650:    4000661c    .f.@    DCD    1073767964
        0x08000654:    4000660c    .f.@    DCD    1073767948
        0x08000658:    40006604    .f.@    DCD    1073767940
        0x0800065c:    40006614    .f.@    DCD    1073767956
    $t
    i.CAN_ITConfig
    CAN_ITConfig
        0x08000660:    2a00        .*      CMP      r2,#0
        0x08000662:    6942        Bi      LDR      r2,[r0,#0x14]
        0x08000664:    bf14        ..      ITE      NE
        0x08000666:    4311        .C      ORRNE    r1,r1,r2
        0x08000668:    ea220101    "...    BICEQ    r1,r2,r1
        0x0800066c:    6141        Aa      STR      r1,[r0,#0x14]
        0x0800066e:    4770        pG      BX       lr
    i.CAN_Init
    CAN_Init
        0x08000670:    6802        .h      LDR      r2,[r0,#0]
        0x08000672:    2300        .#      MOVS     r3,#0
        0x08000674:    f0220202    "...    BIC      r2,r2,#2
        0x08000678:    6002        .`      STR      r2,[r0,#0]
        0x0800067a:    6802        .h      LDR      r2,[r0,#0]
        0x0800067c:    f0420201    B...    ORR      r2,r2,#1
        0x08000680:    6002        .`      STR      r2,[r0,#0]
        0x08000682:    f64f72ff    O..r    MOV      r2,#0xffff
        0x08000686:    bf00        ..      NOP      
        0x08000688:    f8d0c004    ....    LDR      r12,[r0,#4]
        0x0800068c:    f01c0f01    ....    TST      r12,#1
        0x08000690:    d103        ..      BNE      0x800069a ; CAN_Init + 42
        0x08000692:    4293        .B      CMP      r3,r2
        0x08000694:    bf18        ..      IT       NE
        0x08000696:    1c5b        [.      ADDNE    r3,r3,#1
        0x08000698:    d1f6        ..      BNE      0x8000688 ; CAN_Init + 24
        0x0800069a:    6843        Ch      LDR      r3,[r0,#4]
        0x0800069c:    f0130f01    ....    TST      r3,#1
        0x080006a0:    d05d        ].      BEQ      0x800075e ; CAN_Init + 238
        0x080006a2:    798b        .y      LDRB     r3,[r1,#6]
        0x080006a4:    2b01        .+      CMP      r3,#1
        0x080006a6:    6803        .h      LDR      r3,[r0,#0]
        0x080006a8:    bf0c        ..      ITE      EQ
        0x080006aa:    f0430380    C...    ORREQ    r3,r3,#0x80
        0x080006ae:    f0230380    #...    BICNE    r3,r3,#0x80
        0x080006b2:    6003        .`      STR      r3,[r0,#0]
        0x080006b4:    79cb        .y      LDRB     r3,[r1,#7]
        0x080006b6:    2b01        .+      CMP      r3,#1
        0x080006b8:    6803        .h      LDR      r3,[r0,#0]
        0x080006ba:    bf0c        ..      ITE      EQ
        0x080006bc:    f0430340    C.@.    ORREQ    r3,r3,#0x40
        0x080006c0:    f0230340    #.@.    BICNE    r3,r3,#0x40
        0x080006c4:    6003        .`      STR      r3,[r0,#0]
        0x080006c6:    7a0b        .z      LDRB     r3,[r1,#8]
        0x080006c8:    2b01        .+      CMP      r3,#1
        0x080006ca:    6803        .h      LDR      r3,[r0,#0]
        0x080006cc:    bf0c        ..      ITE      EQ
        0x080006ce:    f0430320    C. .    ORREQ    r3,r3,#0x20
        0x080006d2:    f0230320    #. .    BICNE    r3,r3,#0x20
        0x080006d6:    6003        .`      STR      r3,[r0,#0]
        0x080006d8:    7a4b        Kz      LDRB     r3,[r1,#9]
        0x080006da:    2b01        .+      CMP      r3,#1
        0x080006dc:    6803        .h      LDR      r3,[r0,#0]
        0x080006de:    bf0c        ..      ITE      EQ
        0x080006e0:    f0430310    C...    ORREQ    r3,r3,#0x10
        0x080006e4:    f0230310    #...    BICNE    r3,r3,#0x10
        0x080006e8:    6003        .`      STR      r3,[r0,#0]
        0x080006ea:    7a8b        .z      LDRB     r3,[r1,#0xa]
        0x080006ec:    2b01        .+      CMP      r3,#1
        0x080006ee:    6803        .h      LDR      r3,[r0,#0]
        0x080006f0:    bf0c        ..      ITE      EQ
        0x080006f2:    f0430308    C...    ORREQ    r3,r3,#8
        0x080006f6:    f0230308    #...    BICNE    r3,r3,#8
        0x080006fa:    6003        .`      STR      r3,[r0,#0]
        0x080006fc:    7acb        .z      LDRB     r3,[r1,#0xb]
        0x080006fe:    2b01        .+      CMP      r3,#1
        0x08000700:    6803        .h      LDR      r3,[r0,#0]
        0x08000702:    bf0c        ..      ITE      EQ
        0x08000704:    f0430304    C...    ORREQ    r3,r3,#4
        0x08000708:    f0230304    #...    BICNE    r3,r3,#4
        0x0800070c:    6003        .`      STR      r3,[r0,#0]
        0x0800070e:    788b        .x      LDRB     r3,[r1,#2]
        0x08000710:    f891c003    ....    LDRB     r12,[r1,#3]
        0x08000714:    ea4f7383    O..s    LSL      r3,r3,#30
        0x08000718:    ea43630c    C..c    ORR      r3,r3,r12,LSL #24
        0x0800071c:    f891c004    ....    LDRB     r12,[r1,#4]
        0x08000720:    ea43430c    C..C    ORR      r3,r3,r12,LSL #16
        0x08000724:    f891c005    ....    LDRB     r12,[r1,#5]
        0x08000728:    8809        ..      LDRH     r1,[r1,#0]
        0x0800072a:    ea43530c    C..S    ORR      r3,r3,r12,LSL #20
        0x0800072e:    f1a10101    ....    SUB      r1,r1,#1
        0x08000732:    ea430101    C...    ORR      r1,r3,r1
        0x08000736:    61c1        .a      STR      r1,[r0,#0x1c]
        0x08000738:    6801        .h      LDR      r1,[r0,#0]
        0x0800073a:    f0210101    !...    BIC      r1,r1,#1
        0x0800073e:    6001        .`      STR      r1,[r0,#0]
        0x08000740:    f04f0100    O...    MOV      r1,#0
        0x08000744:    6843        Ch      LDR      r3,[r0,#4]
        0x08000746:    f0130f01    ....    TST      r3,#1
        0x0800074a:    bf1c        ..      ITT      NE
        0x0800074c:    4291        .B      CMPNE    r1,r2
        0x0800074e:    1c49        I.      ADDNE    r1,r1,#1
        0x08000750:    d1f8        ..      BNE      0x8000744 ; CAN_Init + 212
        0x08000752:    6840        @h      LDR      r0,[r0,#4]
        0x08000754:    f0100f01    ....    TST      r0,#1
        0x08000758:    bf04        ..      ITT      EQ
        0x0800075a:    2001        .       MOVEQ    r0,#1
        0x0800075c:    4770        pG      BXEQ     lr
        0x0800075e:    f04f0000    O...    MOV      r0,#0
        0x08000762:    4770        pG      BX       lr
    i.CAN_Receive
    CAN_Receive
        0x08000764:    eb001301    ....    ADD      r3,r0,r1,LSL #4
        0x08000768:    f8d3c1b0    ....    LDR      r12,[r3,#0x1b0]
        0x0800076c:    f01c0c04    ....    ANDS     r12,r12,#4
        0x08000770:    f882c008    ....    STRB     r12,[r2,#8]
        0x08000774:    f8d3c1b0    ....    LDR      r12,[r3,#0x1b0]
        0x08000778:    bf07        ..      ITTEE    EQ
        0x0800077a:    ea4f5c5c    O.\\    LSREQ    r12,r12,#21
        0x0800077e:    f8c2c000    ....    STREQ    r12,[r2,#0]
        0x08000782:    ea4f0cdc    O...    LSRNE    r12,r12,#3
        0x08000786:    f8c2c004    ....    STRNE    r12,[r2,#4]
        0x0800078a:    f8d3c1b0    ....    LDR      r12,[r3,#0x1b0]
        0x0800078e:    f00c0c02    ....    AND      r12,r12,#2
        0x08000792:    f882c009    ....    STRB     r12,[r2,#9]
        0x08000796:    f8d3c1b4    ....    LDR      r12,[r3,#0x1b4]
        0x0800079a:    f00c0c0f    ....    AND      r12,r12,#0xf
        0x0800079e:    f882c00a    ....    STRB     r12,[r2,#0xa]
        0x080007a2:    f8d3c1b4    ....    LDR      r12,[r3,#0x1b4]
        0x080007a6:    ea4f2c1c    O..,    LSR      r12,r12,#8
        0x080007aa:    f882c013    ....    STRB     r12,[r2,#0x13]
        0x080007ae:    f8d3c1b8    ....    LDR      r12,[r3,#0x1b8]
        0x080007b2:    f882c00b    ....    STRB     r12,[r2,#0xb]
        0x080007b6:    f8d3c1b8    ....    LDR      r12,[r3,#0x1b8]
        0x080007ba:    ea4f2c1c    O..,    LSR      r12,r12,#8
        0x080007be:    f882c00c    ....    STRB     r12,[r2,#0xc]
        0x080007c2:    f8d3c1b8    ....    LDR      r12,[r3,#0x1b8]
        0x080007c6:    ea4f4c1c    O..L    LSR      r12,r12,#16
        0x080007ca:    f882c00d    ....    STRB     r12,[r2,#0xd]
        0x080007ce:    f8d3c1b8    ....    LDR      r12,[r3,#0x1b8]
        0x080007d2:    ea4f6c1c    O..l    LSR      r12,r12,#24
        0x080007d6:    f882c00e    ....    STRB     r12,[r2,#0xe]
        0x080007da:    f8d3c1bc    ....    LDR      r12,[r3,#0x1bc]
        0x080007de:    f882c00f    ....    STRB     r12,[r2,#0xf]
        0x080007e2:    f8d3c1bc    ....    LDR      r12,[r3,#0x1bc]
        0x080007e6:    ea4f2c1c    O..,    LSR      r12,r12,#8
        0x080007ea:    f882c010    ....    STRB     r12,[r2,#0x10]
        0x080007ee:    f8d3c1bc    ....    LDR      r12,[r3,#0x1bc]
        0x080007f2:    ea4f4c1c    O..L    LSR      r12,r12,#16
        0x080007f6:    f882c011    ....    STRB     r12,[r2,#0x11]
        0x080007fa:    f8d331bc    ...1    LDR      r3,[r3,#0x1bc]
        0x080007fe:    0e1b        ..      LSRS     r3,r3,#24
        0x08000800:    7493        .t      STRB     r3,[r2,#0x12]
        0x08000802:    b121        !.      CBZ      r1,0x800080e ; CAN_Receive + 170
        0x08000804:    6901        .i      LDR      r1,[r0,#0x10]
        0x08000806:    f0410120    A. .    ORR      r1,r1,#0x20
        0x0800080a:    6101        .a      STR      r1,[r0,#0x10]
        0x0800080c:    4770        pG      BX       lr
        0x0800080e:    68c1        .h      LDR      r1,[r0,#0xc]
        0x08000810:    f0410120    A. .    ORR      r1,r1,#0x20
        0x08000814:    60c1        .`      STR      r1,[r0,#0xc]
        0x08000816:    4770        pG      BX       lr
    i.CAN_RxMesInit
    CAN_RxMesInit
        0x08000818:    2100        .!      MOVS     r1,#0
        0x0800081a:    f8401b04    @...    STR      r1,[r0],#4
        0x0800081e:    f8401b04    @...    STR      r1,[r0],#4
        0x08000822:    f8001b0b    ....    STRB     r1,[r0],#0xb
        0x08000826:    f8001909    ....    STRB     r1,[r0],#-9
        0x0800082a:    f8001b01    ....    STRB     r1,[r0],#1
        0x0800082e:    f001b835    ..5.    B.W      __ARM_common_memclr4_8 ; 0x800189c
    i.CAN_StructInit
    CAN_StructInit
        0x08000832:    2100        .!      MOVS     r1,#0
        0x08000834:    7181        .q      STRB     r1,[r0,#6]
        0x08000836:    71c1        .q      STRB     r1,[r0,#7]
        0x08000838:    7201        .r      STRB     r1,[r0,#8]
        0x0800083a:    7241        Ar      STRB     r1,[r0,#9]
        0x0800083c:    7281        .r      STRB     r1,[r0,#0xa]
        0x0800083e:    72c1        .r      STRB     r1,[r0,#0xb]
        0x08000840:    7081        .p      STRB     r1,[r0,#2]
        0x08000842:    70c1        .p      STRB     r1,[r0,#3]
        0x08000844:    2103        .!      MOVS     r1,#3
        0x08000846:    7101        .q      STRB     r1,[r0,#4]
        0x08000848:    2102        .!      MOVS     r1,#2
        0x0800084a:    7141        Aq      STRB     r1,[r0,#5]
        0x0800084c:    2101        .!      MOVS     r1,#1
        0x0800084e:    8001        ..      STRH     r1,[r0,#0]
        0x08000850:    4770        pG      BX       lr
        0x08000852:    0000        ..      MOVS     r0,r0
    i.CAN_Transmit
    CAN_Transmit
        0x08000854:    b410        ..      PUSH     {r4}
        0x08000856:    4602        .F      MOV      r2,r0
        0x08000858:    2000        .       MOVS     r0,#0
        0x0800085a:    6893        .h      LDR      r3,[r2,#8]
        0x0800085c:    f0136f80    ...o    TST      r3,#0x4000000
        0x08000860:    d03f        ?.      BEQ      0x80008e2 ; CAN_Transmit + 142
        0x08000862:    bf00        ..      NOP      
        0x08000864:    eb021200    ....    ADD      r2,r2,r0,LSL #4
        0x08000868:    f8d23180    ...1    LDR      r3,[r2,#0x180]
        0x0800086c:    f0030301    ....    AND      r3,r3,#1
        0x08000870:    f8c23180    ...1    STR      r3,[r2,#0x180]
        0x08000874:    7a0b        .z      LDRB     r3,[r1,#8]
        0x08000876:    2b00        .+      CMP      r3,#0
        0x08000878:    d042        B.      BEQ      0x8000900 ; CAN_Transmit + 172
        0x0800087a:    f8d2c180    ....    LDR      r12,[r2,#0x180]
        0x0800087e:    684c        Lh      LDR      r4,[r1,#4]
        0x08000880:    ea4c0303    L...    ORR      r3,r12,r3
        0x08000884:    f891c009    ....    LDRB     r12,[r1,#9]
        0x08000888:    ea4c0cc4    L...    ORR      r12,r12,r4,LSL #3
        0x0800088c:    ea43030c    C...    ORR      r3,r3,r12
        0x08000890:    f8c23180    ...1    STR      r3,[r2,#0x180]
        0x08000894:    7a8b        .z      LDRB     r3,[r1,#0xa]
        0x08000896:    f003030f    ....    AND      r3,r3,#0xf
        0x0800089a:    728b        .r      STRB     r3,[r1,#0xa]
        0x0800089c:    f8d23184    ...1    LDR      r3,[r2,#0x184]
        0x080008a0:    f023030f    #...    BIC      r3,r3,#0xf
        0x080008a4:    f8c23184    ...1    STR      r3,[r2,#0x184]
        0x080008a8:    f8d23184    ...1    LDR      r3,[r2,#0x184]
        0x080008ac:    f891c00a    ....    LDRB     r12,[r1,#0xa]
        0x080008b0:    ea43030c    C...    ORR      r3,r3,r12
        0x080008b4:    f8c23184    ...1    STR      r3,[r2,#0x184]
        0x080008b8:    7acb        .z      LDRB     r3,[r1,#0xb]
        0x080008ba:    f8d1c00c    ....    LDR      r12,[r1,#0xc]
        0x080008be:    ea43230c    C..#    ORR      r3,r3,r12,LSL #8
        0x080008c2:    f8c23188    ...1    STR      r3,[r2,#0x188]
        0x080008c6:    7bcb        .{      LDRB     r3,[r1,#0xf]
        0x080008c8:    6909        .i      LDR      r1,[r1,#0x10]
        0x080008ca:    ea432101    C..!    ORR      r1,r3,r1,LSL #8
        0x080008ce:    f8c2118c    ....    STR      r1,[r2,#0x18c]
        0x080008d2:    f8d21180    ....    LDR      r1,[r2,#0x180]
        0x080008d6:    f0410101    A...    ORR      r1,r1,#1
        0x080008da:    f8c21180    ....    STR      r1,[r2,#0x180]
        0x080008de:    bc10        ..      POP      {r4}
        0x080008e0:    4770        pG      BX       lr
        0x080008e2:    6890        .h      LDR      r0,[r2,#8]
        0x080008e4:    f0106f00    ...o    TST      r0,#0x8000000
        0x080008e8:    bf18        ..      IT       NE
        0x080008ea:    2001        .       MOVNE    r0,#1
        0x080008ec:    d1ba        ..      BNE      0x8000864 ; CAN_Transmit + 16
        0x080008ee:    6890        .h      LDR      r0,[r2,#8]
        0x080008f0:    f0105f80    ..._    TST      r0,#0x10000000
        0x080008f4:    bf14        ..      ITE      NE
        0x080008f6:    2002        .       MOVNE    r0,#2
        0x080008f8:    2004        .       MOVEQ    r0,#4
        0x080008fa:    d1b3        ..      BNE      0x8000864 ; CAN_Transmit + 16
        0x080008fc:    bc10        ..      POP      {r4}
        0x080008fe:    4770        pG      BX       lr
        0x08000900:    f8d23180    ...1    LDR      r3,[r2,#0x180]
        0x08000904:    f891c009    ....    LDRB     r12,[r1,#9]
        0x08000908:    ea43030c    C...    ORR      r3,r3,r12
        0x0800090c:    f8b1c000    ....    LDRH     r12,[r1,#0]
        0x08000910:    ea43534c    C.LS    ORR      r3,r3,r12,LSL #21
        0x08000914:    e7bc        ..      B        0x8000890 ; CAN_Transmit + 60
        0x08000916:    0000        ..      MOVS     r0,r0
    i.DBGMCU_Config
    DBGMCU_Config
        0x08000918:    4a04        .J      LDR      r2,[pc,#16] ; [0x800092c] = 0xe0042000
        0x0800091a:    2900        .)      CMP      r1,#0
        0x0800091c:    6851        Qh      LDR      r1,[r2,#4]
        0x0800091e:    bf14        ..      ITE      NE
        0x08000920:    4308        .C      ORRNE    r0,r0,r1
        0x08000922:    ea210000    !...    BICEQ    r0,r1,r0
        0x08000926:    6050        P`      STR      r0,[r2,#4]
        0x08000928:    4770        pG      BX       lr
    $d
        0x0800092a:    0000        ..      DCW    0
        0x0800092c:    e0042000    . ..    DCD    3758366720
    $t
    i.DMA1_Channel2_IRQHandler
    DMA1_Channel2_IRQHandler
        0x08000930:    b510        ..      PUSH     {r4,lr}
        0x08000932:    2020                MOVS     r0,#0x20
        0x08000934:    f000f8fc    ....    BL       DMA_GetITStatus ; 0x8000b30
        0x08000938:    2800        .(      CMP      r0,#0
        0x0800093a:    bf08        ..      IT       EQ
        0x0800093c:    bd10        ..      POPEQ    {r4,pc}
        0x0800093e:    2010        .       MOVS     r0,#0x10
        0x08000940:    f000f85a    ..Z.    BL       DMA_ClearITPendingBit ; 0x80009f8
        0x08000944:    2200        ."      MOVS     r2,#0
        0x08000946:    e8bd4010    ...@    POP      {r4,lr}
        0x0800094a:    2102        .!      MOVS     r1,#2
        0x0800094c:    4801        .H      LDR      r0,[pc,#4] ; [0x8000954] = 0x4002001c
        0x0800094e:    f000b8ff    ....    B.W      DMA_ITConfig ; 0x8000b50
    $d
        0x08000952:    0000        ..      DCW    0
        0x08000954:    4002001c    ...@    DCD    1073872924
    $t
    i.DMA1_Channel4_IRQHandler
    DMA1_Channel4_IRQHandler
        0x08000958:    b510        ..      PUSH     {r4,lr}
        0x0800095a:    f44f5000    O..P    MOV      r0,#0x2000
        0x0800095e:    f000f8e7    ....    BL       DMA_GetITStatus ; 0x8000b30
        0x08000962:    2800        .(      CMP      r0,#0
        0x08000964:    bf08        ..      IT       EQ
        0x08000966:    bd10        ..      POPEQ    {r4,pc}
        0x08000968:    f44f5080    O..P    MOV      r0,#0x1000
        0x0800096c:    f000f844    ..D.    BL       DMA_ClearITPendingBit ; 0x80009f8
        0x08000970:    2200        ."      MOVS     r2,#0
        0x08000972:    e8bd4010    ...@    POP      {r4,lr}
        0x08000976:    2102        .!      MOVS     r1,#2
        0x08000978:    4801        .H      LDR      r0,[pc,#4] ; [0x8000980] = 0x40020044
        0x0800097a:    f000b8e9    ....    B.W      DMA_ITConfig ; 0x8000b50
    $d
        0x0800097e:    0000        ..      DCW    0
        0x08000980:    40020044    D..@    DCD    1073872964
    $t
    i.DMA1_Channel5_IRQHandler
    DMA1_Channel5_IRQHandler
        0x08000984:    b510        ..      PUSH     {r4,lr}
        0x08000986:    4808        .H      LDR      r0,[pc,#32] ; [0x80009a8] = 0x10020000
        0x08000988:    f000f8d2    ....    BL       DMA_GetITStatus ; 0x8000b30
        0x0800098c:    2800        .(      CMP      r0,#0
        0x0800098e:    bf08        ..      IT       EQ
        0x08000990:    bd10        ..      POPEQ    {r4,pc}
        0x08000992:    4806        .H      LDR      r0,[pc,#24] ; [0x80009ac] = 0x10010000
        0x08000994:    f000f830    ..0.    BL       DMA_ClearITPendingBit ; 0x80009f8
        0x08000998:    2200        ."      MOVS     r2,#0
        0x0800099a:    e8bd4010    ...@    POP      {r4,lr}
        0x0800099e:    2102        .!      MOVS     r1,#2
        0x080009a0:    4803        .H      LDR      r0,[pc,#12] ; [0x80009b0] = 0x40020458
        0x080009a2:    f000b8d5    ....    B.W      DMA_ITConfig ; 0x8000b50
    $d
        0x080009a6:    0000        ..      DCW    0
        0x080009a8:    10020000    ....    DCD    268566528
        0x080009ac:    10010000    ....    DCD    268500992
        0x080009b0:    40020458    X..@    DCD    1073874008
    $t
    i.DMA1_Channel7_IRQHandler
    DMA1_Channel7_IRQHandler
        0x080009b4:    b510        ..      PUSH     {r4,lr}
        0x080009b6:    f04f7000    O..p    MOV      r0,#0x2000000
        0x080009ba:    f000f8b9    ....    BL       DMA_GetITStatus ; 0x8000b30
        0x080009be:    2800        .(      CMP      r0,#0
        0x080009c0:    bf08        ..      IT       EQ
        0x080009c2:    bd10        ..      POPEQ    {r4,pc}
        0x080009c4:    f04f7080    O..p    MOV      r0,#0x1000000
        0x080009c8:    f000f816    ....    BL       DMA_ClearITPendingBit ; 0x80009f8
        0x080009cc:    2200        ."      MOVS     r2,#0
        0x080009ce:    e8bd4010    ...@    POP      {r4,lr}
        0x080009d2:    2102        .!      MOVS     r1,#2
        0x080009d4:    4801        .H      LDR      r0,[pc,#4] ; [0x80009dc] = 0x40020080
        0x080009d6:    f000b8bb    ....    B.W      DMA_ITConfig ; 0x8000b50
    $d
        0x080009da:    0000        ..      DCW    0
        0x080009dc:    40020080    ...@    DCD    1073873024
    $t
    i.DMA_ClearFlag
    DMA_ClearFlag
        0x080009e0:    f0105f80    ..._    TST      r0,#0x10000000
        0x080009e4:    bf19        ..      ITTEE    NE
        0x080009e6:    4902        .I      LDRNE    r1,[pc,#8] ; [0x80009f0] = 0x40020404
        0x080009e8:    6008        .`      STRNE    r0,[r1,#0]
        0x080009ea:    4902        .I      LDREQ    r1,[pc,#8] ; [0x80009f4] = 0x40020000
        0x080009ec:    6048        H`      STREQ    r0,[r1,#4]
        0x080009ee:    4770        pG      BX       lr
    $d
        0x080009f0:    40020404    ...@    DCD    1073873924
        0x080009f4:    40020000    ...@    DCD    1073872896
    $t
    i.DMA_ClearITPendingBit
    DMA_ClearITPendingBit
        0x080009f8:    f0105f80    ..._    TST      r0,#0x10000000
        0x080009fc:    bf19        ..      ITTEE    NE
        0x080009fe:    4902        .I      LDRNE    r1,[pc,#8] ; [0x8000a08] = 0x40020404
        0x08000a00:    6008        .`      STRNE    r0,[r1,#0]
        0x08000a02:    4902        .I      LDREQ    r1,[pc,#8] ; [0x8000a0c] = 0x40020000
        0x08000a04:    6048        H`      STREQ    r0,[r1,#4]
        0x08000a06:    4770        pG      BX       lr
    $d
        0x08000a08:    40020404    ...@    DCD    1073873924
        0x08000a0c:    40020000    ...@    DCD    1073872896
    $t
    i.DMA_Cmd
    DMA_Cmd
        0x08000a10:    2900        .)      CMP      r1,#0
        0x08000a12:    6801        .h      LDR      r1,[r0,#0]
        0x08000a14:    bf12        ..      ITEE     NE
        0x08000a16:    f0410101    A...    ORRNE    r1,r1,#1
        0x08000a1a:    f64f72fe    O..r    MOVEQ    r2,#0xfffe
        0x08000a1e:    4011        .@      ANDEQ    r1,r1,r2
        0x08000a20:    6001        .`      STR      r1,[r0,#0]
        0x08000a22:    4770        pG      BX       lr
    i.DMA_DeInit
    DMA_DeInit
        0x08000a24:    6801        .h      LDR      r1,[r0,#0]
        0x08000a26:    f64f72fe    O..r    MOV      r2,#0xfffe
        0x08000a2a:    4011        .@      ANDS     r1,r1,r2
        0x08000a2c:    6001        .`      STR      r1,[r0,#0]
        0x08000a2e:    2100        .!      MOVS     r1,#0
        0x08000a30:    6001        .`      STR      r1,[r0,#0]
        0x08000a32:    6041        A`      STR      r1,[r0,#4]
        0x08000a34:    6081        .`      STR      r1,[r0,#8]
        0x08000a36:    60c1        .`      STR      r1,[r0,#0xc]
        0x08000a38:    4a2e        .J      LDR      r2,[pc,#184] ; [0x8000af4] = 0x40020008
        0x08000a3a:    492f        /I      LDR      r1,[pc,#188] ; [0x8000af8] = 0x40020000
        0x08000a3c:    4290        .B      CMP      r0,r2
        0x08000a3e:    bf04        ..      ITT      EQ
        0x08000a40:    6848        Hh      LDREQ    r0,[r1,#4]
        0x08000a42:    f040000f    @...    ORREQ    r0,r0,#0xf
        0x08000a46:    d022        ".      BEQ      0x8000a8e ; DMA_DeInit + 106
        0x08000a48:    4a2c        ,J      LDR      r2,[pc,#176] ; [0x8000afc] = 0x4002001c
        0x08000a4a:    4290        .B      CMP      r0,r2
        0x08000a4c:    bf04        ..      ITT      EQ
        0x08000a4e:    6848        Hh      LDREQ    r0,[r1,#4]
        0x08000a50:    f04000f0    @...    ORREQ    r0,r0,#0xf0
        0x08000a54:    d01b        ..      BEQ      0x8000a8e ; DMA_DeInit + 106
        0x08000a56:    4a2a        *J      LDR      r2,[pc,#168] ; [0x8000b00] = 0x40020030
        0x08000a58:    4290        .B      CMP      r0,r2
        0x08000a5a:    bf04        ..      ITT      EQ
        0x08000a5c:    6848        Hh      LDREQ    r0,[r1,#4]
        0x08000a5e:    f4406070    @.p`    ORREQ    r0,r0,#0xf00
        0x08000a62:    d014        ..      BEQ      0x8000a8e ; DMA_DeInit + 106
        0x08000a64:    4a27        'J      LDR      r2,[pc,#156] ; [0x8000b04] = 0x40020044
        0x08000a66:    4290        .B      CMP      r0,r2
        0x08000a68:    bf04        ..      ITT      EQ
        0x08000a6a:    6848        Hh      LDREQ    r0,[r1,#4]
        0x08000a6c:    f4404070    @.p@    ORREQ    r0,r0,#0xf000
        0x08000a70:    d00d        ..      BEQ      0x8000a8e ; DMA_DeInit + 106
        0x08000a72:    4a25        %J      LDR      r2,[pc,#148] ; [0x8000b08] = 0x40020058
        0x08000a74:    4290        .B      CMP      r0,r2
        0x08000a76:    bf04        ..      ITT      EQ
        0x08000a78:    6848        Hh      LDREQ    r0,[r1,#4]
        0x08000a7a:    f4402070    @.p     ORREQ    r0,r0,#0xf0000
        0x08000a7e:    d006        ..      BEQ      0x8000a8e ; DMA_DeInit + 106
        0x08000a80:    4a22        "J      LDR      r2,[pc,#136] ; [0x8000b0c] = 0x4002006c
        0x08000a82:    4290        .B      CMP      r0,r2
        0x08000a84:    bf04        ..      ITT      EQ
        0x08000a86:    6848        Hh      LDREQ    r0,[r1,#4]
        0x08000a88:    f4400070    @.p.    ORREQ    r0,r0,#0xf00000
        0x08000a8c:    d101        ..      BNE      0x8000a92 ; DMA_DeInit + 110
        0x08000a8e:    6048        H`      STR      r0,[r1,#4]
        0x08000a90:    4770        pG      BX       lr
        0x08000a92:    4a1f        .J      LDR      r2,[pc,#124] ; [0x8000b10] = 0x40020080
        0x08000a94:    4290        .B      CMP      r0,r2
        0x08000a96:    d104        ..      BNE      0x8000aa2 ; DMA_DeInit + 126
        0x08000a98:    6848        Hh      LDR      r0,[r1,#4]
        0x08000a9a:    f0406070    @.p`    ORR      r0,r0,#0xf000000
        0x08000a9e:    6048        H`      STR      r0,[r1,#4]
        0x08000aa0:    4770        pG      BX       lr
        0x08000aa2:    4a1c        .J      LDR      r2,[pc,#112] ; [0x8000b14] = 0x40020408
        0x08000aa4:    1f11        ..      SUBS     r1,r2,#4
        0x08000aa6:    4290        .B      CMP      r0,r2
        0x08000aa8:    bf04        ..      ITT      EQ
        0x08000aaa:    6808        .h      LDREQ    r0,[r1,#0]
        0x08000aac:    f040000f    @...    ORREQ    r0,r0,#0xf
        0x08000ab0:    d014        ..      BEQ      0x8000adc ; DMA_DeInit + 184
        0x08000ab2:    4a19        .J      LDR      r2,[pc,#100] ; [0x8000b18] = 0x4002041c
        0x08000ab4:    4290        .B      CMP      r0,r2
        0x08000ab6:    bf04        ..      ITT      EQ
        0x08000ab8:    6808        .h      LDREQ    r0,[r1,#0]
        0x08000aba:    f04000f0    @...    ORREQ    r0,r0,#0xf0
        0x08000abe:    d00d        ..      BEQ      0x8000adc ; DMA_DeInit + 184
        0x08000ac0:    4a16        .J      LDR      r2,[pc,#88] ; [0x8000b1c] = 0x40020430
        0x08000ac2:    4290        .B      CMP      r0,r2
        0x08000ac4:    bf04        ..      ITT      EQ
        0x08000ac6:    6808        .h      LDREQ    r0,[r1,#0]
        0x08000ac8:    f4406070    @.p`    ORREQ    r0,r0,#0xf00
        0x08000acc:    d006        ..      BEQ      0x8000adc ; DMA_DeInit + 184
        0x08000ace:    4a14        .J      LDR      r2,[pc,#80] ; [0x8000b20] = 0x40020444
        0x08000ad0:    4290        .B      CMP      r0,r2
        0x08000ad2:    bf04        ..      ITT      EQ
        0x08000ad4:    6808        .h      LDREQ    r0,[r1,#0]
        0x08000ad6:    f4404070    @.p@    ORREQ    r0,r0,#0xf000
        0x08000ada:    d101        ..      BNE      0x8000ae0 ; DMA_DeInit + 188
        0x08000adc:    6008        .`      STR      r0,[r1,#0]
        0x08000ade:    4770        pG      BX       lr
        0x08000ae0:    4a10        .J      LDR      r2,[pc,#64] ; [0x8000b24] = 0x40020458
        0x08000ae2:    4290        .B      CMP      r0,r2
        0x08000ae4:    bf18        ..      IT       NE
        0x08000ae6:    4770        pG      BXNE     lr
        0x08000ae8:    6808        .h      LDR      r0,[r1,#0]
        0x08000aea:    f4402070    @.p     ORR      r0,r0,#0xf0000
        0x08000aee:    6008        .`      STR      r0,[r1,#0]
        0x08000af0:    4770        pG      BX       lr
    $d
        0x08000af2:    0000        ..      DCW    0
        0x08000af4:    40020008    ...@    DCD    1073872904
        0x08000af8:    40020000    ...@    DCD    1073872896
        0x08000afc:    4002001c    ...@    DCD    1073872924
        0x08000b00:    40020030    0..@    DCD    1073872944
        0x08000b04:    40020044    D..@    DCD    1073872964
        0x08000b08:    40020058    X..@    DCD    1073872984
        0x08000b0c:    4002006c    l..@    DCD    1073873004
        0x08000b10:    40020080    ...@    DCD    1073873024
        0x08000b14:    40020408    ...@    DCD    1073873928
        0x08000b18:    4002041c    ...@    DCD    1073873948
        0x08000b1c:    40020430    0..@    DCD    1073873968
        0x08000b20:    40020444    D..@    DCD    1073873988
        0x08000b24:    40020458    X..@    DCD    1073874008
    $t
    i.DMA_GetCurrDataCounter
    DMA_GetCurrDataCounter
        0x08000b28:    6840        @h      LDR      r0,[r0,#4]
        0x08000b2a:    b280        ..      UXTH     r0,r0
        0x08000b2c:    4770        pG      BX       lr
        0x08000b2e:    0000        ..      MOVS     r0,r0
    i.DMA_GetITStatus
    DMA_GetITStatus
        0x08000b30:    2100        .!      MOVS     r1,#0
        0x08000b32:    f0105f80    ..._    TST      r0,#0x10000000
        0x08000b36:    bf14        ..      ITE      NE
        0x08000b38:    4a03        .J      LDRNE    r2,[pc,#12] ; [0x8000b48] = 0x40020400
        0x08000b3a:    4a04        .J      LDREQ    r2,[pc,#16] ; [0x8000b4c] = 0x40020000
        0x08000b3c:    6812        .h      LDR      r2,[r2,#0]
        0x08000b3e:    4202        .B      TST      r2,r0
        0x08000b40:    bf18        ..      IT       NE
        0x08000b42:    2101        .!      MOVNE    r1,#1
        0x08000b44:    4608        .F      MOV      r0,r1
        0x08000b46:    4770        pG      BX       lr
    $d
        0x08000b48:    40020400    ...@    DCD    1073873920
        0x08000b4c:    40020000    ...@    DCD    1073872896
    $t
    i.DMA_ITConfig
    DMA_ITConfig
        0x08000b50:    2a00        .*      CMP      r2,#0
        0x08000b52:    6802        .h      LDR      r2,[r0,#0]
        0x08000b54:    bf14        ..      ITE      NE
        0x08000b56:    4311        .C      ORRNE    r1,r1,r2
        0x08000b58:    ea220101    "...    BICEQ    r1,r2,r1
        0x08000b5c:    6001        .`      STR      r1,[r0,#0]
        0x08000b5e:    4770        pG      BX       lr
    i.DMA_Init
    DMA_Init
        0x08000b60:    b410        ..      PUSH     {r4}
        0x08000b62:    6802        .h      LDR      r2,[r0,#0]
        0x08000b64:    f8d1c020    .. .    LDR      r12,[r1,#0x20]
        0x08000b68:    688b        .h      LDR      r3,[r1,#8]
        0x08000b6a:    f36f120e    o...    BFC      r2,#4,#11
        0x08000b6e:    ea43030c    C...    ORR      r3,r3,r12
        0x08000b72:    e9d1c404    ....    LDRD     r12,r4,[r1,#0x10]
        0x08000b76:    ea4c0c04    L...    ORR      r12,r12,r4
        0x08000b7a:    ea43030c    C...    ORR      r3,r3,r12
        0x08000b7e:    f8d1c018    ....    LDR      r12,[r1,#0x18]
        0x08000b82:    ea43030c    C...    ORR      r3,r3,r12
        0x08000b86:    f8d1c01c    ....    LDR      r12,[r1,#0x1c]
        0x08000b8a:    ea43030c    C...    ORR      r3,r3,r12
        0x08000b8e:    f8d1c024    ..$.    LDR      r12,[r1,#0x24]
        0x08000b92:    ea43030c    C...    ORR      r3,r3,r12
        0x08000b96:    f8d1c028    ..(.    LDR      r12,[r1,#0x28]
        0x08000b9a:    ea43030c    C...    ORR      r3,r3,r12
        0x08000b9e:    431a        .C      ORRS     r2,r2,r3
        0x08000ba0:    6002        .`      STR      r2,[r0,#0]
        0x08000ba2:    68ca        .h      LDR      r2,[r1,#0xc]
        0x08000ba4:    6042        B`      STR      r2,[r0,#4]
        0x08000ba6:    680a        .h      LDR      r2,[r1,#0]
        0x08000ba8:    6082        .`      STR      r2,[r0,#8]
        0x08000baa:    6849        Ih      LDR      r1,[r1,#4]
        0x08000bac:    60c1        .`      STR      r1,[r0,#0xc]
        0x08000bae:    bc10        ..      POP      {r4}
        0x08000bb0:    4770        pG      BX       lr
    i.DMA_SetCurrDataCounter
    DMA_SetCurrDataCounter
        0x08000bb2:    6041        A`      STR      r1,[r0,#4]
        0x08000bb4:    4770        pG      BX       lr
    i.DMA_StructInit
    DMA_StructInit
        0x08000bb6:    2100        .!      MOVS     r1,#0
        0x08000bb8:    6001        .`      STR      r1,[r0,#0]
        0x08000bba:    6041        A`      STR      r1,[r0,#4]
        0x08000bbc:    6081        .`      STR      r1,[r0,#8]
        0x08000bbe:    60c1        .`      STR      r1,[r0,#0xc]
        0x08000bc0:    6101        .a      STR      r1,[r0,#0x10]
        0x08000bc2:    6141        Aa      STR      r1,[r0,#0x14]
        0x08000bc4:    6181        .a      STR      r1,[r0,#0x18]
        0x08000bc6:    61c1        .a      STR      r1,[r0,#0x1c]
        0x08000bc8:    6201        .b      STR      r1,[r0,#0x20]
        0x08000bca:    6241        Ab      STR      r1,[r0,#0x24]
        0x08000bcc:    6281        .b      STR      r1,[r0,#0x28]
        0x08000bce:    4770        pG      BX       lr
    i.DebugMon_Handler
    DebugMon_Handler
        0x08000bd0:    4770        pG      BX       lr
    i.EXTI15_10_IRQHandler
    EXTI15_10_IRQHandler
        0x08000bd2:    b510        ..      PUSH     {r4,lr}
        0x08000bd4:    f44f6080    O..`    MOV      r0,#0x400
        0x08000bd8:    f000f81c    ....    BL       EXTI_GetITStatus ; 0x8000c14
        0x08000bdc:    2800        .(      CMP      r0,#0
        0x08000bde:    bf08        ..      IT       EQ
        0x08000be0:    bd10        ..      POPEQ    {r4,pc}
        0x08000be2:    f44f6080    O..`    MOV      r0,#0x400
        0x08000be6:    e8bd4010    ...@    POP      {r4,lr}
        0x08000bea:    f000b80d    ....    B.W      EXTI_ClearITPendingBit ; 0x8000c08
    i.EXTI3_IRQHandler
    EXTI3_IRQHandler
        0x08000bee:    b510        ..      PUSH     {r4,lr}
        0x08000bf0:    2008        .       MOVS     r0,#8
        0x08000bf2:    f000f80f    ....    BL       EXTI_GetITStatus ; 0x8000c14
        0x08000bf6:    2800        .(      CMP      r0,#0
        0x08000bf8:    bf08        ..      IT       EQ
        0x08000bfa:    bd10        ..      POPEQ    {r4,pc}
        0x08000bfc:    2008        .       MOVS     r0,#8
        0x08000bfe:    e8bd4010    ...@    POP      {r4,lr}
        0x08000c02:    f000b801    ....    B.W      EXTI_ClearITPendingBit ; 0x8000c08
        0x08000c06:    0000        ..      MOVS     r0,r0
    i.EXTI_ClearITPendingBit
    EXTI_ClearITPendingBit
        0x08000c08:    4901        .I      LDR      r1,[pc,#4] ; [0x8000c10] = 0x40010414
        0x08000c0a:    6008        .`      STR      r0,[r1,#0]
        0x08000c0c:    4770        pG      BX       lr
    $d
        0x08000c0e:    0000        ..      DCW    0
        0x08000c10:    40010414    ...@    DCD    1073808404
    $t
    i.EXTI_GetITStatus
    EXTI_GetITStatus
        0x08000c14:    4a05        .J      LDR      r2,[pc,#20] ; [0x8000c2c] = 0x40010400
        0x08000c16:    2100        .!      MOVS     r1,#0
        0x08000c18:    6812        .h      LDR      r2,[r2,#0]
        0x08000c1a:    4b05        .K      LDR      r3,[pc,#20] ; [0x8000c30] = 0x40010414
        0x08000c1c:    4002        .@      ANDS     r2,r2,r0
        0x08000c1e:    681b        .h      LDR      r3,[r3,#0]
        0x08000c20:    4203        .B      TST      r3,r0
        0x08000c22:    bf1c        ..      ITT      NE
        0x08000c24:    2a00        .*      CMPNE    r2,#0
        0x08000c26:    2101        .!      MOVNE    r1,#1
        0x08000c28:    4608        .F      MOV      r0,r1
        0x08000c2a:    4770        pG      BX       lr
    $d
        0x08000c2c:    40010400    ...@    DCD    1073808384
        0x08000c30:    40010414    ...@    DCD    1073808404
    $t
    i.GPIO_Config
    GPIO_Config
        0x08000c34:    b5f8        ..      PUSH     {r3-r7,lr}
        0x08000c36:    460e        .F      MOV      r6,r1
        0x08000c38:    461c        .F      MOV      r4,r3
        0x08000c3a:    4615        .F      MOV      r5,r2
        0x08000c3c:    2101        .!      MOVS     r1,#1
        0x08000c3e:    f000f8eb    ....    BL       RCC_APB2PeriphClockCmd ; 0x8000e18
        0x08000c42:    f8ad5000    ...P    STRH     r5,[sp,#0]
        0x08000c46:    2203        ."      MOVS     r2,#3
        0x08000c48:    f88d2002    ...     STRB     r2,[sp,#2]
        0x08000c4c:    f88d4003    ...@    STRB     r4,[sp,#3]
        0x08000c50:    4669        iF      MOV      r1,sp
        0x08000c52:    4630        0F      MOV      r0,r6
        0x08000c54:    f000f801    ....    BL       GPIO_Init ; 0x8000c5a
        0x08000c58:    bdf8        ..      POP      {r3-r7,pc}
    i.GPIO_Init
    GPIO_Init
        0x08000c5a:    e92d01f0    -...    PUSH     {r4-r8}
        0x08000c5e:    78cb        .x      LDRB     r3,[r1,#3]
        0x08000c60:    2200        ."      MOVS     r2,#0
        0x08000c62:    f0030c0f    ....    AND      r12,r3,#0xf
        0x08000c66:    f0130f10    ....    TST      r3,#0x10
        0x08000c6a:    bf1c        ..      ITT      NE
        0x08000c6c:    788b        .x      LDRBNE   r3,[r1,#2]
        0x08000c6e:    ea430c0c    C...    ORRNE    r12,r3,r12
        0x08000c72:    780b        .x      LDRB     r3,[r1,#0]
        0x08000c74:    f04f060f    O...    MOV      r6,#0xf
        0x08000c78:    f0130fff    ....    TST      r3,#0xff
        0x08000c7c:    f04f0501    O...    MOV      r5,#1
        0x08000c80:    bf18        ..      IT       NE
        0x08000c82:    6804        .h      LDRNE    r4,[r0,#0]
        0x08000c84:    d019        ..      BEQ      0x8000cba ; GPIO_Init + 96
        0x08000c86:    880f        ..      LDRH     r7,[r1,#0]
        0x08000c88:    fa05f302    ....    LSL      r3,r5,r2
        0x08000c8c:    401f        .@      ANDS     r7,r7,r3
        0x08000c8e:    429f        .B      CMP      r7,r3
        0x08000c90:    d10f        ..      BNE      0x8000cb2 ; GPIO_Init + 88
        0x08000c92:    0097        ..      LSLS     r7,r2,#2
        0x08000c94:    fa06f807    ....    LSL      r8,r6,r7
        0x08000c98:    ea240408    $...    BIC      r4,r4,r8
        0x08000c9c:    fa0cf707    ....    LSL      r7,r12,r7
        0x08000ca0:    433c        <C      ORRS     r4,r4,r7
        0x08000ca2:    78cf        .x      LDRB     r7,[r1,#3]
        0x08000ca4:    2f28        (/      CMP      r7,#0x28
        0x08000ca6:    bf08        ..      IT       EQ
        0x08000ca8:    6143        Ca      STREQ    r3,[r0,#0x14]
        0x08000caa:    d002        ..      BEQ      0x8000cb2 ; GPIO_Init + 88
        0x08000cac:    2f48        H/      CMP      r7,#0x48
        0x08000cae:    bf08        ..      IT       EQ
        0x08000cb0:    6103        .a      STREQ    r3,[r0,#0x10]
        0x08000cb2:    1c52        R.      ADDS     r2,r2,#1
        0x08000cb4:    2a08        .*      CMP      r2,#8
        0x08000cb6:    d3e6        ..      BCC      0x8000c86 ; GPIO_Init + 44
        0x08000cb8:    6004        .`      STR      r4,[r0,#0]
        0x08000cba:    880a        ..      LDRH     r2,[r1,#0]
        0x08000cbc:    2aff        .*      CMP      r2,#0xff
        0x08000cbe:    bf87        ..      ITTEE    HI
        0x08000cc0:    6844        Dh      LDRHI    r4,[r0,#4]
        0x08000cc2:    2200        ."      MOVHI    r2,#0
        0x08000cc4:    e8bd01f0    ....    POPLS    {r4-r8}
        0x08000cc8:    4770        pG      BXLS     lr
        0x08000cca:    f1020308    ....    ADD      r3,r2,#8
        0x08000cce:    880f        ..      LDRH     r7,[r1,#0]
        0x08000cd0:    fa05f303    ....    LSL      r3,r5,r3
        0x08000cd4:    401f        .@      ANDS     r7,r7,r3
        0x08000cd6:    429f        .B      CMP      r7,r3
        0x08000cd8:    d10f        ..      BNE      0x8000cfa ; GPIO_Init + 160
        0x08000cda:    0097        ..      LSLS     r7,r2,#2
        0x08000cdc:    fa06f807    ....    LSL      r8,r6,r7
        0x08000ce0:    ea240408    $...    BIC      r4,r4,r8
        0x08000ce4:    fa0cf707    ....    LSL      r7,r12,r7
        0x08000ce8:    433c        <C      ORRS     r4,r4,r7
        0x08000cea:    78cf        .x      LDRB     r7,[r1,#3]
        0x08000cec:    2f28        (/      CMP      r7,#0x28
        0x08000cee:    bf08        ..      IT       EQ
        0x08000cf0:    6143        Ca      STREQ    r3,[r0,#0x14]
        0x08000cf2:    78cf        .x      LDRB     r7,[r1,#3]
        0x08000cf4:    2f48        H/      CMP      r7,#0x48
        0x08000cf6:    bf08        ..      IT       EQ
        0x08000cf8:    6103        .a      STREQ    r3,[r0,#0x10]
        0x08000cfa:    1c52        R.      ADDS     r2,r2,#1
        0x08000cfc:    2a08        .*      CMP      r2,#8
        0x08000cfe:    d3e4        ..      BCC      0x8000cca ; GPIO_Init + 112
        0x08000d00:    6044        D`      STR      r4,[r0,#4]
        0x08000d02:    e8bd01f0    ....    POP      {r4-r8}
        0x08000d06:    4770        pG      BX       lr
    i.HardFault_Handler
    HardFault_Handler
        0x08000d08:    a102        ..      ADR      r1,{pc}+0xc ; 0x8000d14
        0x08000d0a:    a00d        ..      ADR      r0,{pc}+0x36 ; 0x8000d40
        0x08000d0c:    f000fdb6    ....    BL       __0printf$8 ; 0x800187c
        0x08000d10:    e7fe        ..      B        0x8000d10 ; HardFault_Handler + 8
    $d
        0x08000d12:    0000        ..      DCW    0
        0x08000d14:    6e450a0d    ..En    DCD    1850018317
        0x08000d18:    20726574    ter     DCD    544367988
        0x08000d1c:    64726148    Hard    DCD    1685217608
        0x08000d20:    6c756146    Faul    DCD    1819631942
        0x08000d24:    61485f74    t_Ha    DCD    1632132980
        0x08000d28:    656c646e    ndle    DCD    1701602414
        0x08000d2c:    53202c72    r, S    DCD    1394617458
        0x08000d30:    65747379    yste    DCD    1702130553
        0x08000d34:    6148206d    m Ha    DCD    1632116845
        0x08000d38:    0d2e746c    lt..    DCD    221148268
        0x08000d3c:    0000000a    ....    DCD    10
        0x08000d40:    00007325    %s..    DCD    29477
    $t
    i.MemManage_Handler
    MemManage_Handler
        0x08000d44:    e7fe        ..      B        MemManage_Handler ; 0x8000d44
    i.NMI_Handler
    NMI_Handler
        0x08000d46:    4770        pG      BX       lr
    i.NVIC_Init
    NVIC_Init
        0x08000d48:    b410        ..      PUSH     {r4}
        0x08000d4a:    78c2        .x      LDRB     r2,[r0,#3]
        0x08000d4c:    7801        .x      LDRB     r1,[r0,#0]
        0x08000d4e:    f04f0c0f    O...    MOV      r12,#0xf
        0x08000d52:    2301        .#      MOVS     r3,#1
        0x08000d54:    b322        ".      CBZ      r2,0x8000da0 ; NVIC_Init + 88
        0x08000d56:    4a18        .J      LDR      r2,[pc,#96] ; [0x8000db8] = 0xe000ed0c
        0x08000d58:    6812        .h      LDR      r2,[r2,#0]
        0x08000d5a:    f10121e0    ...!    ADD      r1,r1,#0xe000e000
        0x08000d5e:    f40262e0    ...b    AND      r2,r2,#0x700
        0x08000d62:    f5c262e0    ...b    RSB      r2,r2,#0x700
        0x08000d66:    0a12        ..      LSRS     r2,r2,#8
        0x08000d68:    f1c20404    ....    RSB      r4,r2,#4
        0x08000d6c:    fa2cf202    ,...    LSR      r2,r12,r2
        0x08000d70:    f890c001    ....    LDRB     r12,[r0,#1]
        0x08000d74:    fa0cfc04    ....    LSL      r12,r12,r4
        0x08000d78:    7884        .x      LDRB     r4,[r0,#2]
        0x08000d7a:    4022        "@      ANDS     r2,r2,r4
        0x08000d7c:    ea42020c    B...    ORR      r2,r2,r12
        0x08000d80:    0112        ..      LSLS     r2,r2,#4
        0x08000d82:    f8812400    ...$    STRB     r2,[r1,#0x400]
        0x08000d86:    7800        .x      LDRB     r0,[r0,#0]
        0x08000d88:    f000011f    ....    AND      r1,r0,#0x1f
        0x08000d8c:    fa03f101    ....    LSL      r1,r3,r1
        0x08000d90:    0940        @.      LSRS     r0,r0,#5
        0x08000d92:    0080        ..      LSLS     r0,r0,#2
        0x08000d94:    f10020e0    ...     ADD      r0,r0,#0xe000e000
        0x08000d98:    f8c01100    ....    STR      r1,[r0,#0x100]
        0x08000d9c:    bc10        ..      POP      {r4}
        0x08000d9e:    4770        pG      BX       lr
        0x08000da0:    f001001f    ....    AND      r0,r1,#0x1f
        0x08000da4:    fa03f000    ....    LSL      r0,r3,r0
        0x08000da8:    0949        I.      LSRS     r1,r1,#5
        0x08000daa:    0089        ..      LSLS     r1,r1,#2
        0x08000dac:    f10121e0    ...!    ADD      r1,r1,#0xe000e000
        0x08000db0:    f8c10180    ....    STR      r0,[r1,#0x180]
        0x08000db4:    bc10        ..      POP      {r4}
        0x08000db6:    4770        pG      BX       lr
    $d
        0x08000db8:    e000ed0c    ....    DCD    3758157068
    $t
    i.NVIC_PriorityGroupConfig
    NVIC_PriorityGroupConfig
        0x08000dbc:    4903        .I      LDR      r1,[pc,#12] ; [0x8000dcc] = 0xe000ed0c
        0x08000dbe:    f04070fd    @..p    ORR      r0,r0,#0x1fa0000
        0x08000dc2:    f0406080    @..`    ORR      r0,r0,#0x4000000
        0x08000dc6:    6008        .`      STR      r0,[r1,#0]
        0x08000dc8:    4770        pG      BX       lr
    $d
        0x08000dca:    0000        ..      DCW    0
        0x08000dcc:    e000ed0c    ....    DCD    3758157068
    $t
    i.RCC_AHBPeriphClockCmd
    RCC_AHBPeriphClockCmd
        0x08000dd0:    4a04        .J      LDR      r2,[pc,#16] ; [0x8000de4] = 0x40021000
        0x08000dd2:    2900        .)      CMP      r1,#0
        0x08000dd4:    6951        Qi      LDR      r1,[r2,#0x14]
        0x08000dd6:    bf14        ..      ITE      NE
        0x08000dd8:    4308        .C      ORRNE    r0,r0,r1
        0x08000dda:    ea210000    !...    BICEQ    r0,r1,r0
        0x08000dde:    6150        Pa      STR      r0,[r2,#0x14]
        0x08000de0:    4770        pG      BX       lr
    $d
        0x08000de2:    0000        ..      DCW    0
        0x08000de4:    40021000    ...@    DCD    1073876992
    $t
    i.RCC_APB1PeriphClockCmd
    RCC_APB1PeriphClockCmd
        0x08000de8:    4a04        .J      LDR      r2,[pc,#16] ; [0x8000dfc] = 0x40021000
        0x08000dea:    2900        .)      CMP      r1,#0
        0x08000dec:    69d1        .i      LDR      r1,[r2,#0x1c]
        0x08000dee:    bf14        ..      ITE      NE
        0x08000df0:    4308        .C      ORRNE    r0,r0,r1
        0x08000df2:    ea210000    !...    BICEQ    r0,r1,r0
        0x08000df6:    61d0        .a      STR      r0,[r2,#0x1c]
        0x08000df8:    4770        pG      BX       lr
    $d
        0x08000dfa:    0000        ..      DCW    0
        0x08000dfc:    40021000    ...@    DCD    1073876992
    $t
    i.RCC_APB1PeriphResetCmd
    RCC_APB1PeriphResetCmd
        0x08000e00:    4a04        .J      LDR      r2,[pc,#16] ; [0x8000e14] = 0x40021000
        0x08000e02:    2900        .)      CMP      r1,#0
        0x08000e04:    6911        .i      LDR      r1,[r2,#0x10]
        0x08000e06:    bf14        ..      ITE      NE
        0x08000e08:    4308        .C      ORRNE    r0,r0,r1
        0x08000e0a:    ea210000    !...    BICEQ    r0,r1,r0
        0x08000e0e:    6110        .a      STR      r0,[r2,#0x10]
        0x08000e10:    4770        pG      BX       lr
    $d
        0x08000e12:    0000        ..      DCW    0
        0x08000e14:    40021000    ...@    DCD    1073876992
    $t
    i.RCC_APB2PeriphClockCmd
    RCC_APB2PeriphClockCmd
        0x08000e18:    4a04        .J      LDR      r2,[pc,#16] ; [0x8000e2c] = 0x40021000
        0x08000e1a:    2900        .)      CMP      r1,#0
        0x08000e1c:    6991        .i      LDR      r1,[r2,#0x18]
        0x08000e1e:    bf14        ..      ITE      NE
        0x08000e20:    4308        .C      ORRNE    r0,r0,r1
        0x08000e22:    ea210000    !...    BICEQ    r0,r1,r0
        0x08000e26:    6190        .a      STR      r0,[r2,#0x18]
        0x08000e28:    4770        pG      BX       lr
    $d
        0x08000e2a:    0000        ..      DCW    0
        0x08000e2c:    40021000    ...@    DCD    1073876992
    $t
    i.RCC_APB2PeriphResetCmd
    RCC_APB2PeriphResetCmd
        0x08000e30:    4a04        .J      LDR      r2,[pc,#16] ; [0x8000e44] = 0x40021000
        0x08000e32:    2900        .)      CMP      r1,#0
        0x08000e34:    68d1        .h      LDR      r1,[r2,#0xc]
        0x08000e36:    bf14        ..      ITE      NE
        0x08000e38:    4308        .C      ORRNE    r0,r0,r1
        0x08000e3a:    ea210000    !...    BICEQ    r0,r1,r0
        0x08000e3e:    60d0        .`      STR      r0,[r2,#0xc]
        0x08000e40:    4770        pG      BX       lr
    $d
        0x08000e42:    0000        ..      DCW    0
        0x08000e44:    40021000    ...@    DCD    1073876992
    $t
    i.RCC_GetClocksFreq
    RCC_GetClocksFreq
        0x08000e48:    4925        %I      LDR      r1,[pc,#148] ; [0x8000ee0] = 0x40021000
        0x08000e4a:    b410        ..      PUSH     {r4}
        0x08000e4c:    684a        Jh      LDR      r2,[r1,#4]
        0x08000e4e:    f012030c    ....    ANDS     r3,r2,#0xc
        0x08000e52:    4a24        $J      LDR      r2,[pc,#144] ; [0x8000ee4] = 0x7a1200
        0x08000e54:    bf18        ..      IT       NE
        0x08000e56:    2b04        .+      CMPNE    r3,#4
        0x08000e58:    d001        ..      BEQ      0x8000e5e ; RCC_GetClocksFreq + 22
        0x08000e5a:    2b08        .+      CMP      r3,#8
        0x08000e5c:    d001        ..      BEQ      0x8000e62 ; RCC_GetClocksFreq + 26
        0x08000e5e:    6002        .`      STR      r2,[r0,#0]
        0x08000e60:    e015        ..      B        0x8000e8e ; RCC_GetClocksFreq + 70
        0x08000e62:    684a        Jh      LDR      r2,[r1,#4]
        0x08000e64:    684b        Kh      LDR      r3,[r1,#4]
        0x08000e66:    f4021270    ..p.    AND      r2,r2,#0x3c0000
        0x08000e6a:    f04f0c02    O...    MOV      r12,#2
        0x08000e6e:    f4133f80    ...?    TST      r3,#0x10000
        0x08000e72:    eb0c4292    ...B    ADD      r2,r12,r2,LSR #18
        0x08000e76:    d003        ..      BEQ      0x8000e80 ; RCC_GetClocksFreq + 56
        0x08000e78:    684b        Kh      LDR      r3,[r1,#4]
        0x08000e7a:    f4133f00    ...?    TST      r3,#0x20000
        0x08000e7e:    d003        ..      BEQ      0x8000e88 ; RCC_GetClocksFreq + 64
        0x08000e80:    4b19        .K      LDR      r3,[pc,#100] ; [0x8000ee8] = 0x3d0900
        0x08000e82:    435a        ZC      MULS     r2,r3,r2
        0x08000e84:    6002        .`      STR      r2,[r0,#0]
        0x08000e86:    e002        ..      B        0x8000e8e ; RCC_GetClocksFreq + 70
        0x08000e88:    4b16        .K      LDR      r3,[pc,#88] ; [0x8000ee4] = 0x7a1200
        0x08000e8a:    435a        ZC      MULS     r2,r3,r2
        0x08000e8c:    6002        .`      STR      r2,[r0,#0]
        0x08000e8e:    684a        Jh      LDR      r2,[r1,#4]
        0x08000e90:    230f        .#      MOVS     r3,#0xf
        0x08000e92:    ea031212    ....    AND      r2,r3,r2,LSR #4
        0x08000e96:    4b15        .K      LDR      r3,[pc,#84] ; [0x8000eec] = 0x20000014
        0x08000e98:    5c9a        .\      LDRB     r2,[r3,r2]
        0x08000e9a:    f8d0c000    ....    LDR      r12,[r0,#0]
        0x08000e9e:    fa2cf202    ,...    LSR      r2,r12,r2
        0x08000ea2:    6042        B`      STR      r2,[r0,#4]
        0x08000ea4:    f8d1c004    ....    LDR      r12,[r1,#4]
        0x08000ea8:    2407        .$      MOVS     r4,#7
        0x08000eaa:    ea042c1c    ...,    AND      r12,r4,r12,LSR #8
        0x08000eae:    f813c00c    ....    LDRB     r12,[r3,r12]
        0x08000eb2:    fa22fc0c    "...    LSR      r12,r2,r12
        0x08000eb6:    f8c0c008    ....    STR      r12,[r0,#8]
        0x08000eba:    f8d1c004    ....    LDR      r12,[r1,#4]
        0x08000ebe:    ea042cdc    ...,    AND      r12,r4,r12,LSR #11
        0x08000ec2:    f813300c    ...0    LDRB     r3,[r3,r12]
        0x08000ec6:    40da        .@      LSRS     r2,r2,r3
        0x08000ec8:    60c2        .`      STR      r2,[r0,#0xc]
        0x08000eca:    6849        Ih      LDR      r1,[r1,#4]
        0x08000ecc:    2303        .#      MOVS     r3,#3
        0x08000ece:    ea033191    ...1    AND      r1,r3,r1,LSR #14
        0x08000ed2:    4b07        .K      LDR      r3,[pc,#28] ; [0x8000ef0] = 0x20000010
        0x08000ed4:    5c59        Y\      LDRB     r1,[r3,r1]
        0x08000ed6:    fbb2f1f1    ....    UDIV     r1,r2,r1
        0x08000eda:    6101        .a      STR      r1,[r0,#0x10]
        0x08000edc:    bc10        ..      POP      {r4}
        0x08000ede:    4770        pG      BX       lr
    $d
        0x08000ee0:    40021000    ...@    DCD    1073876992
        0x08000ee4:    007a1200    ..z.    DCD    8000000
        0x08000ee8:    003d0900    ..=.    DCD    4000000
        0x08000eec:    20000014    ...     DCD    536870932
        0x08000ef0:    20000010    ...     DCD    536870928
    $t
    i.SystemInit
    SystemInit
        0x08000ef4:    4837        7H      LDR      r0,[pc,#220] ; [0x8000fd4] = 0x40021000
        0x08000ef6:    b082        ..      SUB      sp,sp,#8
        0x08000ef8:    6801        .h      LDR      r1,[r0,#0]
        0x08000efa:    f0410101    A...    ORR      r1,r1,#1
        0x08000efe:    6001        .`      STR      r1,[r0,#0]
        0x08000f00:    6841        Ah      LDR      r1,[r0,#4]
        0x08000f02:    4a35        5J      LDR      r2,[pc,#212] ; [0x8000fd8] = 0xf8ff0000
        0x08000f04:    4011        .@      ANDS     r1,r1,r2
        0x08000f06:    6041        A`      STR      r1,[r0,#4]
        0x08000f08:    6801        .h      LDR      r1,[r0,#0]
        0x08000f0a:    f4212110    !..!    BIC      r1,r1,#0x90000
        0x08000f0e:    f0217180    !..q    BIC      r1,r1,#0x1000000
        0x08000f12:    6001        .`      STR      r1,[r0,#0]
        0x08000f14:    6801        .h      LDR      r1,[r0,#0]
        0x08000f16:    f4212180    !..!    BIC      r1,r1,#0x40000
        0x08000f1a:    6001        .`      STR      r1,[r0,#0]
        0x08000f1c:    6841        Ah      LDR      r1,[r0,#4]
        0x08000f1e:    f42101fe    !...    BIC      r1,r1,#0x7f0000
        0x08000f22:    6041        A`      STR      r1,[r0,#4]
        0x08000f24:    f44f011f    O...    MOV      r1,#0x9f0000
        0x08000f28:    6081        .`      STR      r1,[r0,#8]
        0x08000f2a:    2200        ."      MOVS     r2,#0
        0x08000f2c:    9201        ..      STR      r2,[sp,#4]
        0x08000f2e:    9200        ..      STR      r2,[sp,#0]
        0x08000f30:    6801        .h      LDR      r1,[r0,#0]
        0x08000f32:    f4413180    A..1    ORR      r1,r1,#0x10000
        0x08000f36:    6001        .`      STR      r1,[r0,#0]
        0x08000f38:    6801        .h      LDR      r1,[r0,#0]
        0x08000f3a:    f4013100    ...1    AND      r1,r1,#0x20000
        0x08000f3e:    9100        ..      STR      r1,[sp,#0]
        0x08000f40:    9901        ..      LDR      r1,[sp,#4]
        0x08000f42:    1c49        I.      ADDS     r1,r1,#1
        0x08000f44:    9101        ..      STR      r1,[sp,#4]
        0x08000f46:    9900        ..      LDR      r1,[sp,#0]
        0x08000f48:    b919        ..      CBNZ     r1,0x8000f52 ; SystemInit + 94
        0x08000f4a:    9901        ..      LDR      r1,[sp,#4]
        0x08000f4c:    f5b16fa0    ...o    CMP      r1,#0x500
        0x08000f50:    d1f2        ..      BNE      0x8000f38 ; SystemInit + 68
        0x08000f52:    6801        .h      LDR      r1,[r0,#0]
        0x08000f54:    f4113f00    ...?    TST      r1,#0x20000
        0x08000f58:    bf08        ..      IT       EQ
        0x08000f5a:    9200        ..      STREQ    r2,[sp,#0]
        0x08000f5c:    d033        3.      BEQ      0x8000fc6 ; SystemInit + 210
        0x08000f5e:    2101        .!      MOVS     r1,#1
        0x08000f60:    9100        ..      STR      r1,[sp,#0]
        0x08000f62:    491e        .I      LDR      r1,[pc,#120] ; [0x8000fdc] = 0x40022000
        0x08000f64:    680a        .h      LDR      r2,[r1,#0]
        0x08000f66:    f0420210    B...    ORR      r2,r2,#0x10
        0x08000f6a:    600a        .`      STR      r2,[r1,#0]
        0x08000f6c:    680a        .h      LDR      r2,[r1,#0]
        0x08000f6e:    f0220203    "...    BIC      r2,r2,#3
        0x08000f72:    600a        .`      STR      r2,[r1,#0]
        0x08000f74:    680a        .h      LDR      r2,[r1,#0]
        0x08000f76:    f0420202    B...    ORR      r2,r2,#2
        0x08000f7a:    600a        .`      STR      r2,[r1,#0]
        0x08000f7c:    6841        Ah      LDR      r1,[r0,#4]
        0x08000f7e:    6041        A`      STR      r1,[r0,#4]
        0x08000f80:    6841        Ah      LDR      r1,[r0,#4]
        0x08000f82:    6041        A`      STR      r1,[r0,#4]
        0x08000f84:    6841        Ah      LDR      r1,[r0,#4]
        0x08000f86:    f4416180    A..a    ORR      r1,r1,#0x400
        0x08000f8a:    6041        A`      STR      r1,[r0,#4]
        0x08000f8c:    6841        Ah      LDR      r1,[r0,#4]
        0x08000f8e:    f421117c    !.|.    BIC      r1,r1,#0x3f0000
        0x08000f92:    6041        A`      STR      r1,[r0,#4]
        0x08000f94:    6841        Ah      LDR      r1,[r0,#4]
        0x08000f96:    f44111e8    A...    ORR      r1,r1,#0x1d0000
        0x08000f9a:    6041        A`      STR      r1,[r0,#4]
        0x08000f9c:    6801        .h      LDR      r1,[r0,#0]
        0x08000f9e:    f0417180    A..q    ORR      r1,r1,#0x1000000
        0x08000fa2:    6001        .`      STR      r1,[r0,#0]
        0x08000fa4:    6801        .h      LDR      r1,[r0,#0]
        0x08000fa6:    f0117f00    ....    TST      r1,#0x2000000
        0x08000faa:    d0fb        ..      BEQ      0x8000fa4 ; SystemInit + 176
        0x08000fac:    6841        Ah      LDR      r1,[r0,#4]
        0x08000fae:    f0210103    !...    BIC      r1,r1,#3
        0x08000fb2:    6041        A`      STR      r1,[r0,#4]
        0x08000fb4:    6841        Ah      LDR      r1,[r0,#4]
        0x08000fb6:    f0410102    A...    ORR      r1,r1,#2
        0x08000fba:    6041        A`      STR      r1,[r0,#4]
        0x08000fbc:    6841        Ah      LDR      r1,[r0,#4]
        0x08000fbe:    f001010c    ....    AND      r1,r1,#0xc
        0x08000fc2:    2908        .)      CMP      r1,#8
        0x08000fc4:    d1fa        ..      BNE      0x8000fbc ; SystemInit + 200
        0x08000fc6:    4906        .I      LDR      r1,[pc,#24] ; [0x8000fe0] = 0xe000ed08
        0x08000fc8:    f04f6000    O..`    MOV      r0,#0x8000000
        0x08000fcc:    6008        .`      STR      r0,[r1,#0]
        0x08000fce:    b002        ..      ADD      sp,sp,#8
        0x08000fd0:    4770        pG      BX       lr
    $d
        0x08000fd2:    0000        ..      DCW    0
        0x08000fd4:    40021000    ...@    DCD    1073876992
        0x08000fd8:    f8ff0000    ....    DCD    4177461248
        0x08000fdc:    40022000    . .@    DCD    1073881088
        0x08000fe0:    e000ed08    ....    DCD    3758157064
    $t
    i.TIM2_IRQHandler
    TIM2_IRQHandler
        0x08000fe4:    f04f4080    O..@    MOV      r0,#0x40000000
        0x08000fe8:    8a01        ..      LDRH     r1,[r0,#0x10]
        0x08000fea:    8a01        ..      LDRH     r1,[r0,#0x10]
        0x08000fec:    f0210101    !...    BIC      r1,r1,#1
        0x08000ff0:    8201        ..      STRH     r1,[r0,#0x10]
        0x08000ff2:    4770        pG      BX       lr
    i.TIM4_IRQHandler
    TIM4_IRQHandler
        0x08000ff4:    4803        .H      LDR      r0,[pc,#12] ; [0x8001004] = 0x40000810
        0x08000ff6:    8801        ..      LDRH     r1,[r0,#0]
        0x08000ff8:    8801        ..      LDRH     r1,[r0,#0]
        0x08000ffa:    f0210101    !...    BIC      r1,r1,#1
        0x08000ffe:    8001        ..      STRH     r1,[r0,#0]
        0x08001000:    4770        pG      BX       lr
    $d
        0x08001002:    0000        ..      DCW    0
        0x08001004:    40000810    ...@    DCD    1073743888
    $t
    i.USART1_IRQHandler
    USART1_IRQHandler
        0x08001008:    b570        p.      PUSH     {r4-r6,lr}
        0x0800100a:    4c17        .L      LDR      r4,[pc,#92] ; [0x8001068] = 0x40013800
        0x0800100c:    f2404124    @.$A    MOV      r1,#0x424
        0x08001010:    4620         F      MOV      r0,r4
        0x08001012:    f000f920    .. .    BL       USART_GetITStatus ; 0x8001256
        0x08001016:    2801        .(      CMP      r0,#1
        0x08001018:    bf18        ..      IT       NE
        0x0800101a:    bd70        p.      POPNE    {r4-r6,pc}
        0x0800101c:    a013        ..      ADR      r0,{pc}+0x50 ; 0x800106c
        0x0800101e:    f000fc2d    ..-.    BL       __0printf$8 ; 0x800187c
        0x08001022:    8820         .      LDRH     r0,[r4,#0]
        0x08001024:    4c15        .L      LDR      r4,[pc,#84] ; [0x800107c] = 0x20002b18
        0x08001026:    8020         .      STRH     r0,[r4,#0]
        0x08001028:    4815        .H      LDR      r0,[pc,#84] ; [0x8001080] = 0x40013804
        0x0800102a:    8800        ..      LDRH     r0,[r0,#0]
        0x0800102c:    4d15        .M      LDR      r5,[pc,#84] ; [0x8001084] = 0x40020058
        0x0800102e:    8020         .      STRH     r0,[r4,#0]
        0x08001030:    2100        .!      MOVS     r1,#0
        0x08001032:    4628        (F      MOV      r0,r5
        0x08001034:    f7fffcec    ....    BL       DMA_Cmd ; 0x8000a10
        0x08001038:    4628        (F      MOV      r0,r5
        0x0800103a:    f7fffd75    ..u.    BL       DMA_GetCurrDataCounter ; 0x8000b28
        0x0800103e:    f1c00080    ....    RSB      r0,r0,#0x80
        0x08001042:    b281        ..      UXTH     r1,r0
        0x08001044:    1ca2        ..      ADDS     r2,r4,#2
        0x08001046:    8021        !.      STRH     r1,[r4,#0]
        0x08001048:    2000        .       MOVS     r0,#0
        0x0800104a:    5488        .T      STRB     r0,[r1,r2]
        0x0800104c:    2180        .!      MOVS     r1,#0x80
        0x0800104e:    4628        (F      MOV      r0,r5
        0x08001050:    f7fffdaf    ....    BL       DMA_SetCurrDataCounter ; 0x8000bb2
        0x08001054:    2101        .!      MOVS     r1,#1
        0x08001056:    4628        (F      MOV      r0,r5
        0x08001058:    f7fffcda    ....    BL       DMA_Cmd ; 0x8000a10
        0x0800105c:    e8bd4070    ..p@    POP      {r4-r6,lr}
        0x08001060:    4809        .H      LDR      r0,[pc,#36] ; [0x8001088] = 0x20000024
        0x08001062:    f000bed5    ....    B.W      isr_sem_send ; 0x8001e10
    $d
        0x08001066:    0000        ..      DCW    0
        0x08001068:    40013800    .8.@    DCD    1073821696
        0x0800106c:    52415355    USAR    DCD    1380012885
        0x08001070:    54495f54    T_IT    DCD    1414094676
        0x08001074:    4c44495f    _IDL    DCD    1279543647
        0x08001078:    00003145    E1..    DCD    12613
        0x0800107c:    20002b18    .+.     DCD    536881944
        0x08001080:    40013804    .8.@    DCD    1073821700
        0x08001084:    40020058    X..@    DCD    1073872984
        0x08001088:    20000024    $..     DCD    536870948
    $t
    i.USART2_IRQHandler
    USART2_IRQHandler
        0x0800108c:    b570        p.      PUSH     {r4-r6,lr}
        0x0800108e:    4c17        .L      LDR      r4,[pc,#92] ; [0x80010ec] = 0x40004400
        0x08001090:    f2404124    @.$A    MOV      r1,#0x424
        0x08001094:    4620         F      MOV      r0,r4
        0x08001096:    f000f8de    ....    BL       USART_GetITStatus ; 0x8001256
        0x0800109a:    2801        .(      CMP      r0,#1
        0x0800109c:    bf18        ..      IT       NE
        0x0800109e:    bd70        p.      POPNE    {r4-r6,pc}
        0x080010a0:    a013        ..      ADR      r0,{pc}+0x50 ; 0x80010f0
        0x080010a2:    f000fbeb    ....    BL       __0printf$8 ; 0x800187c
        0x080010a6:    8820         .      LDRH     r0,[r4,#0]
        0x080010a8:    4c15        .L      LDR      r4,[pc,#84] ; [0x8001100] = 0x20002b9a
        0x080010aa:    8020         .      STRH     r0,[r4,#0]
        0x080010ac:    4815        .H      LDR      r0,[pc,#84] ; [0x8001104] = 0x40004404
        0x080010ae:    8800        ..      LDRH     r0,[r0,#0]
        0x080010b0:    8020         .      STRH     r0,[r4,#0]
        0x080010b2:    4d15        .M      LDR      r5,[pc,#84] ; [0x8001108] = 0x4002006c
        0x080010b4:    2100        .!      MOVS     r1,#0
        0x080010b6:    4628        (F      MOV      r0,r5
        0x080010b8:    f7fffcaa    ....    BL       DMA_Cmd ; 0x8000a10
        0x080010bc:    4628        (F      MOV      r0,r5
        0x080010be:    f7fffd33    ..3.    BL       DMA_GetCurrDataCounter ; 0x8000b28
        0x080010c2:    f1c00080    ....    RSB      r0,r0,#0x80
        0x080010c6:    8020         .      STRH     r0,[r4,#0]
        0x080010c8:    8821        !.      LDRH     r1,[r4,#0]
        0x080010ca:    2000        .       MOVS     r0,#0
        0x080010cc:    1ca2        ..      ADDS     r2,r4,#2
        0x080010ce:    5488        .T      STRB     r0,[r1,r2]
        0x080010d0:    2180        .!      MOVS     r1,#0x80
        0x080010d2:    4628        (F      MOV      r0,r5
        0x080010d4:    f7fffd6d    ..m.    BL       DMA_SetCurrDataCounter ; 0x8000bb2
        0x080010d8:    2101        .!      MOVS     r1,#1
        0x080010da:    4628        (F      MOV      r0,r5
        0x080010dc:    f7fffc98    ....    BL       DMA_Cmd ; 0x8000a10
        0x080010e0:    e8bd4070    ..p@    POP      {r4-r6,lr}
        0x080010e4:    4809        .H      LDR      r0,[pc,#36] ; [0x800110c] = 0x2000002c
        0x080010e6:    f000be93    ....    B.W      isr_sem_send ; 0x8001e10
    $d
        0x080010ea:    0000        ..      DCW    0
        0x080010ec:    40004400    .D.@    DCD    1073759232
        0x080010f0:    52415355    USAR    DCD    1380012885
        0x080010f4:    54495f54    T_IT    DCD    1414094676
        0x080010f8:    4c44495f    _IDL    DCD    1279543647
        0x080010fc:    00003245    E2..    DCD    12869
        0x08001100:    20002b9a    .+.     DCD    536882074
        0x08001104:    40004404    .D.@    DCD    1073759236
        0x08001108:    4002006c    l..@    DCD    1073873004
        0x0800110c:    2000002c    ,..     DCD    536870956
    $t
    i.USART3_IRQHandler
    USART3_IRQHandler
        0x08001110:    b570        p.      PUSH     {r4-r6,lr}
        0x08001112:    4c15        .L      LDR      r4,[pc,#84] ; [0x8001168] = 0x40004800
        0x08001114:    f2404124    @.$A    MOV      r1,#0x424
        0x08001118:    4620         F      MOV      r0,r4
        0x0800111a:    f000f89c    ....    BL       USART_GetITStatus ; 0x8001256
        0x0800111e:    2801        .(      CMP      r0,#1
        0x08001120:    bf18        ..      IT       NE
        0x08001122:    bd70        p.      POPNE    {r4-r6,pc}
        0x08001124:    8820         .      LDRH     r0,[r4,#0]
        0x08001126:    4c11        .L      LDR      r4,[pc,#68] ; [0x800116c] = 0x20002c1c
        0x08001128:    8020         .      STRH     r0,[r4,#0]
        0x0800112a:    4811        .H      LDR      r0,[pc,#68] ; [0x8001170] = 0x40004804
        0x0800112c:    8800        ..      LDRH     r0,[r0,#0]
        0x0800112e:    4d11        .M      LDR      r5,[pc,#68] ; [0x8001174] = 0x40020030
        0x08001130:    8020         .      STRH     r0,[r4,#0]
        0x08001132:    2100        .!      MOVS     r1,#0
        0x08001134:    4628        (F      MOV      r0,r5
        0x08001136:    f7fffc6b    ..k.    BL       DMA_Cmd ; 0x8000a10
        0x0800113a:    4628        (F      MOV      r0,r5
        0x0800113c:    f7fffcf4    ....    BL       DMA_GetCurrDataCounter ; 0x8000b28
        0x08001140:    f1c00080    ....    RSB      r0,r0,#0x80
        0x08001144:    b281        ..      UXTH     r1,r0
        0x08001146:    1ca2        ..      ADDS     r2,r4,#2
        0x08001148:    8021        !.      STRH     r1,[r4,#0]
        0x0800114a:    2000        .       MOVS     r0,#0
        0x0800114c:    5488        .T      STRB     r0,[r1,r2]
        0x0800114e:    2180        .!      MOVS     r1,#0x80
        0x08001150:    4628        (F      MOV      r0,r5
        0x08001152:    f7fffd2e    ....    BL       DMA_SetCurrDataCounter ; 0x8000bb2
        0x08001156:    2101        .!      MOVS     r1,#1
        0x08001158:    4628        (F      MOV      r0,r5
        0x0800115a:    f7fffc59    ..Y.    BL       DMA_Cmd ; 0x8000a10
        0x0800115e:    e8bd4070    ..p@    POP      {r4-r6,lr}
        0x08001162:    4805        .H      LDR      r0,[pc,#20] ; [0x8001178] = 0x20000034
        0x08001164:    f000be54    ..T.    B.W      isr_sem_send ; 0x8001e10
    $d
        0x08001168:    40004800    .H.@    DCD    1073760256
        0x0800116c:    20002c1c    .,.     DCD    536882204
        0x08001170:    40004804    .H.@    DCD    1073760260
        0x08001174:    40020030    0..@    DCD    1073872944
        0x08001178:    20000034    4..     DCD    536870964
    $t
    i.USART_ClearFlag
    USART_ClearFlag
        0x0800117c:    43c9        .C      MVNS     r1,r1
        0x0800117e:    8001        ..      STRH     r1,[r0,#0]
        0x08001180:    4770        pG      BX       lr
    i.USART_Cmd
    USART_Cmd
        0x08001182:    2900        .)      CMP      r1,#0
        0x08001184:    8981        ..      LDRH     r1,[r0,#0xc]
        0x08001186:    bf14        ..      ITE      NE
        0x08001188:    f4415100    A..Q    ORRNE    r1,r1,#0x2000
        0x0800118c:    f4215100    !..Q    BICEQ    r1,r1,#0x2000
        0x08001190:    8181        ..      STRH     r1,[r0,#0xc]
        0x08001192:    4770        pG      BX       lr
    i.USART_DMACmd
    USART_DMACmd
        0x08001194:    2a00        .*      CMP      r2,#0
        0x08001196:    8a82        ..      LDRH     r2,[r0,#0x14]
        0x08001198:    bf14        ..      ITE      NE
        0x0800119a:    4311        .C      ORRNE    r1,r1,r2
        0x0800119c:    ea220101    "...    BICEQ    r1,r2,r1
        0x080011a0:    8281        ..      STRH     r1,[r0,#0x14]
        0x080011a2:    4770        pG      BX       lr
    i.USART_DeInit
    USART_DeInit
        0x080011a4:    b510        ..      PUSH     {r4,lr}
        0x080011a6:    f1a04180    ...A    SUB      r1,r0,#0x40000000
        0x080011aa:    f5b1319c    ...1    SUBS     r1,r1,#0x13800
        0x080011ae:    d01f        ..      BEQ      0x80011f0 ; USART_DeInit + 76
        0x080011b0:    f1a04180    ...A    SUB      r1,r0,#0x40000000
        0x080011b4:    f5b14188    ...A    SUBS     r1,r1,#0x4400
        0x080011b8:    d025        %.      BEQ      0x8001206 ; USART_DeInit + 98
        0x080011ba:    f1a04180    ...A    SUB      r1,r0,#0x40000000
        0x080011be:    f5b14190    ...A    SUBS     r1,r1,#0x4800
        0x080011c2:    d02b        +.      BEQ      0x800121c ; USART_DeInit + 120
        0x080011c4:    f1a04180    ...A    SUB      r1,r0,#0x40000000
        0x080011c8:    f5b14198    ...A    SUBS     r1,r1,#0x4c00
        0x080011cc:    d031        1.      BEQ      0x8001232 ; USART_DeInit + 142
        0x080011ce:    f1a04180    ...A    SUB      r1,r0,#0x40000000
        0x080011d2:    f5b141a0    ...A    SUBS     r1,r1,#0x5000
        0x080011d6:    bf18        ..      IT       NE
        0x080011d8:    bd10        ..      POPNE    {r4,pc}
        0x080011da:    2101        .!      MOVS     r1,#1
        0x080011dc:    0508        ..      LSLS     r0,r1,#20
        0x080011de:    f7fffe0f    ....    BL       RCC_APB1PeriphResetCmd ; 0x8000e00
        0x080011e2:    e8bd4010    ...@    POP      {r4,lr}
        0x080011e6:    2100        .!      MOVS     r1,#0
        0x080011e8:    f44f1080    O...    MOV      r0,#0x100000
        0x080011ec:    f7ffbe08    ....    B.W      RCC_APB1PeriphResetCmd ; 0x8000e00
        0x080011f0:    2101        .!      MOVS     r1,#1
        0x080011f2:    0388        ..      LSLS     r0,r1,#14
        0x080011f4:    f7fffe1c    ....    BL       RCC_APB2PeriphResetCmd ; 0x8000e30
        0x080011f8:    e8bd4010    ...@    POP      {r4,lr}
        0x080011fc:    2100        .!      MOVS     r1,#0
        0x080011fe:    f44f4080    O..@    MOV      r0,#0x4000
        0x08001202:    f7ffbe15    ....    B.W      RCC_APB2PeriphResetCmd ; 0x8000e30
        0x08001206:    2101        .!      MOVS     r1,#1
        0x08001208:    0448        H.      LSLS     r0,r1,#17
        0x0800120a:    f7fffdf9    ....    BL       RCC_APB1PeriphResetCmd ; 0x8000e00
        0x0800120e:    e8bd4010    ...@    POP      {r4,lr}
        0x08001212:    2100        .!      MOVS     r1,#0
        0x08001214:    f44f3000    O..0    MOV      r0,#0x20000
        0x08001218:    f7ffbdf2    ....    B.W      RCC_APB1PeriphResetCmd ; 0x8000e00
        0x0800121c:    2101        .!      MOVS     r1,#1
        0x0800121e:    0488        ..      LSLS     r0,r1,#18
        0x08001220:    f7fffdee    ....    BL       RCC_APB1PeriphResetCmd ; 0x8000e00
        0x08001224:    e8bd4010    ...@    POP      {r4,lr}
        0x08001228:    2100        .!      MOVS     r1,#0
        0x0800122a:    f44f2080    O..     MOV      r0,#0x40000
        0x0800122e:    f7ffbde7    ....    B.W      RCC_APB1PeriphResetCmd ; 0x8000e00
        0x08001232:    2101        .!      MOVS     r1,#1
        0x08001234:    04c8        ..      LSLS     r0,r1,#19
        0x08001236:    f7fffde3    ....    BL       RCC_APB1PeriphResetCmd ; 0x8000e00
        0x0800123a:    e8bd4010    ...@    POP      {r4,lr}
        0x0800123e:    2100        .!      MOVS     r1,#0
        0x08001240:    f44f2000    O..     MOV      r0,#0x80000
        0x08001244:    f7ffbddc    ....    B.W      RCC_APB1PeriphResetCmd ; 0x8000e00
    i.USART_GetFlagStatus
    USART_GetFlagStatus
        0x08001248:    4602        .F      MOV      r2,r0
        0x0800124a:    2000        .       MOVS     r0,#0
        0x0800124c:    8812        ..      LDRH     r2,[r2,#0]
        0x0800124e:    420a        .B      TST      r2,r1
        0x08001250:    bf18        ..      IT       NE
        0x08001252:    2001        .       MOVNE    r0,#1
        0x08001254:    4770        pG      BX       lr
    i.USART_GetITStatus
    USART_GetITStatus
        0x08001256:    b410        ..      PUSH     {r4}
        0x08001258:    f001021f    ....    AND      r2,r1,#0x1f
        0x0800125c:    2401        .$      MOVS     r4,#1
        0x0800125e:    2300        .#      MOVS     r3,#0
        0x08001260:    f3c11c42    ..B.    UBFX     r12,r1,#5,#3
        0x08001264:    fa04f202    ....    LSL      r2,r4,r2
        0x08001268:    f1bc0f01    ....    CMP      r12,#1
        0x0800126c:    bf04        ..      ITT      EQ
        0x0800126e:    f8b0c00c    ....    LDRHEQ   r12,[r0,#0xc]
        0x08001272:    ea0c0202    ....    ANDEQ    r2,r12,r2
        0x08001276:    d008        ..      BEQ      0x800128a ; USART_GetITStatus + 52
        0x08001278:    f1bc0f02    ....    CMP      r12,#2
        0x0800127c:    bf0c        ..      ITE      EQ
        0x0800127e:    f8b0c010    ....    LDRHEQ   r12,[r0,#0x10]
        0x08001282:    f8b0c014    ....    LDRHNE   r12,[r0,#0x14]
        0x08001286:    ea0c0202    ....    AND      r2,r12,r2
        0x0800128a:    0a09        ..      LSRS     r1,r1,#8
        0x0800128c:    8800        ..      LDRH     r0,[r0,#0]
        0x0800128e:    fa04f101    ....    LSL      r1,r4,r1
        0x08001292:    4008        .@      ANDS     r0,r0,r1
        0x08001294:    2a00        .*      CMP      r2,#0
        0x08001296:    bf1c        ..      ITT      NE
        0x08001298:    2800        .(      CMPNE    r0,#0
        0x0800129a:    2301        .#      MOVNE    r3,#1
        0x0800129c:    4618        .F      MOV      r0,r3
        0x0800129e:    bc10        ..      POP      {r4}
        0x080012a0:    4770        pG      BX       lr
    i.USART_ITConfig
    USART_ITConfig
        0x080012a2:    f3c11342    ..B.    UBFX     r3,r1,#5,#3
        0x080012a6:    f001011f    ....    AND      r1,r1,#0x1f
        0x080012aa:    f04f0c01    O...    MOV      r12,#1
        0x080012ae:    fa0cf101    ....    LSL      r1,r12,r1
        0x080012b2:    2b01        .+      CMP      r3,#1
        0x080012b4:    bf08        ..      IT       EQ
        0x080012b6:    300c        .0      ADDEQ    r0,r0,#0xc
        0x080012b8:    d003        ..      BEQ      0x80012c2 ; USART_ITConfig + 32
        0x080012ba:    2b02        .+      CMP      r3,#2
        0x080012bc:    bf0c        ..      ITE      EQ
        0x080012be:    3010        .0      ADDEQ    r0,r0,#0x10
        0x080012c0:    3014        .0      ADDNE    r0,r0,#0x14
        0x080012c2:    2a00        .*      CMP      r2,#0
        0x080012c4:    6802        .h      LDR      r2,[r0,#0]
        0x080012c6:    bf14        ..      ITE      NE
        0x080012c8:    4311        .C      ORRNE    r1,r1,r2
        0x080012ca:    ea220101    "...    BICEQ    r1,r2,r1
        0x080012ce:    6001        .`      STR      r1,[r0,#0]
        0x080012d0:    4770        pG      BX       lr
        0x080012d2:    0000        ..      MOVS     r0,r0
    i.USART_Init
    USART_Init
        0x080012d4:    b530        0.      PUSH     {r4,r5,lr}
        0x080012d6:    4604        .F      MOV      r4,r0
        0x080012d8:    8a00        ..      LDRH     r0,[r0,#0x10]
        0x080012da:    b085        ..      SUB      sp,sp,#0x14
        0x080012dc:    460d        .F      MOV      r5,r1
        0x080012de:    f64c71ff    L..q    MOV      r1,#0xcfff
        0x080012e2:    4008        .@      ANDS     r0,r0,r1
        0x080012e4:    88e9        ..      LDRH     r1,[r5,#6]
        0x080012e6:    4308        .C      ORRS     r0,r0,r1
        0x080012e8:    8220         .      STRH     r0,[r4,#0x10]
        0x080012ea:    89a0        ..      LDRH     r0,[r4,#0xc]
        0x080012ec:    f64e11f3    N...    MOV      r1,#0xe9f3
        0x080012f0:    4008        .@      ANDS     r0,r0,r1
        0x080012f2:    88a9        ..      LDRH     r1,[r5,#4]
        0x080012f4:    892a        *.      LDRH     r2,[r5,#8]
        0x080012f6:    4311        .C      ORRS     r1,r1,r2
        0x080012f8:    896a        j.      LDRH     r2,[r5,#0xa]
        0x080012fa:    4310        .C      ORRS     r0,r0,r2
        0x080012fc:    4308        .C      ORRS     r0,r0,r1
        0x080012fe:    81a0        ..      STRH     r0,[r4,#0xc]
        0x08001300:    8aa0        ..      LDRH     r0,[r4,#0x14]
        0x08001302:    f64f41ff    O..A    MOV      r1,#0xfcff
        0x08001306:    4008        .@      ANDS     r0,r0,r1
        0x08001308:    89a9        ..      LDRH     r1,[r5,#0xc]
        0x0800130a:    4308        .C      ORRS     r0,r0,r1
        0x0800130c:    82a0        ..      STRH     r0,[r4,#0x14]
        0x0800130e:    4668        hF      MOV      r0,sp
        0x08001310:    f7fffd9a    ....    BL       RCC_GetClocksFreq ; 0x8000e48
        0x08001314:    f1a44080    ...@    SUB      r0,r4,#0x40000000
        0x08001318:    f5b0309c    ...0    SUBS     r0,r0,#0x13800
        0x0800131c:    bf0c        ..      ITE      EQ
        0x0800131e:    9803        ..      LDREQ    r0,[sp,#0xc]
        0x08001320:    9802        ..      LDRNE    r0,[sp,#8]
        0x08001322:    89a1        ..      LDRH     r1,[r4,#0xc]
        0x08001324:    f4114f00    ...O    TST      r1,#0x8000
        0x08001328:    eb0001c0    ....    ADD      r1,r0,r0,LSL #3
        0x0800132c:    eb011000    ....    ADD      r0,r1,r0,LSL #4
        0x08001330:    6829        )h      LDR      r1,[r5,#0]
        0x08001332:    bf14        ..      ITE      NE
        0x08001334:    0049        I.      LSLNE    r1,r1,#1
        0x08001336:    0089        ..      LSLEQ    r1,r1,#2
        0x08001338:    fbb0f0f1    ....    UDIV     r0,r0,r1
        0x0800133c:    4a11        .J      LDR      r2,[pc,#68] ; [0x8001384] = 0x51eb851f
        0x0800133e:    f06f0c18    o...    MVN      r12,#0x18
        0x08001342:    fba23100    ...1    UMULL    r3,r1,r2,r0
        0x08001346:    0949        I.      LSRS     r1,r1,#5
        0x08001348:    0109        ..      LSLS     r1,r1,#4
        0x0800134a:    090b        ..      LSRS     r3,r1,#4
        0x0800134c:    fb03f30c    ....    MUL      r3,r3,r12
        0x08001350:    eb000083    ....    ADD      r0,r0,r3,LSL #2
        0x08001354:    89a3        ..      LDRH     r3,[r4,#0xc]
        0x08001356:    f4134f00    ...O    TST      r3,#0x8000
        0x0800135a:    f04f0332    O.2.    MOV      r3,#0x32
        0x0800135e:    bf14        ..      ITE      NE
        0x08001360:    eb0300c0    ....    ADDNE    r0,r3,r0,LSL #3
        0x08001364:    eb031000    ....    ADDEQ    r0,r3,r0,LSL #4
        0x08001368:    fba22000    ...     UMULL    r2,r0,r2,r0
        0x0800136c:    ea4f1050    O.P.    LSR      r0,r0,#5
        0x08001370:    bf14        ..      ITE      NE
        0x08001372:    f0000007    ....    ANDNE    r0,r0,#7
        0x08001376:    f000000f    ....    ANDEQ    r0,r0,#0xf
        0x0800137a:    4308        .C      ORRS     r0,r0,r1
        0x0800137c:    8120         .      STRH     r0,[r4,#8]
        0x0800137e:    b005        ..      ADD      sp,sp,#0x14
        0x08001380:    bd30        0.      POP      {r4,r5,pc}
    $d
        0x08001382:    0000        ..      DCW    0
        0x08001384:    51eb851f    ...Q    DCD    1374389535
    $t
    i.USART_SendData
    USART_SendData
        0x08001388:    f3c10108    ....    UBFX     r1,r1,#0,#9
        0x0800138c:    8081        ..      STRH     r1,[r0,#4]
        0x0800138e:    4770        pG      BX       lr
    i.USART_driverInit
    USART_driverInit
        0x08001390:    e92d4fff    -..O    PUSH     {r0-r11,lr}
        0x08001394:    b08d        ..      SUB      sp,sp,#0x34
        0x08001396:    4604        .F      MOV      r4,r0
        0x08001398:    f7ffff04    ....    BL       USART_DeInit ; 0x80011a4
        0x0800139c:    2518        .%      MOVS     r5,#0x18
        0x0800139e:    2603        .&      MOVS     r6,#3
        0x080013a0:    f8dfb3e8    ....    LDR      r11,[pc,#1000] ; [0x800178c] = 0x40010800
        0x080013a4:    4ffa        .O      LDR      r7,[pc,#1000] ; [0x8001790] = 0x40004400
        0x080013a6:    f8df83ec    ....    LDR      r8,[pc,#1004] ; [0x8001794] = 0x40004800
        0x080013aa:    f1a44080    ...@    SUB      r0,r4,#0x40000000
        0x080013ae:    f44f6a80    O..j    MOV      r10,#0x400
        0x080013b2:    f04f0948    O.H.    MOV      r9,#0x48
        0x080013b6:    f5b0309c    ...0    SUBS     r0,r0,#0x13800
        0x080013ba:    d008        ..      BEQ      0x80013ce ; USART_driverInit + 62
        0x080013bc:    42bc        .B      CMP      r4,r7
        0x080013be:    d121        !.      BNE      0x8001404 ; USART_driverInit + 116
        0x080013c0:    2101        .!      MOVS     r1,#1
        0x080013c2:    2004        .       MOVS     r0,#4
        0x080013c4:    f7fffd28    ..(.    BL       RCC_APB2PeriphClockCmd ; 0x8000e18
        0x080013c8:    2101        .!      MOVS     r1,#1
        0x080013ca:    0448        H.      LSLS     r0,r1,#17
        0x080013cc:    e03f        ?.      B        0x800144e ; USART_driverInit + 190
        0x080013ce:    2101        .!      MOVS     r1,#1
        0x080013d0:    2004        .       MOVS     r0,#4
        0x080013d2:    f7fffd21    ..!.    BL       RCC_APB2PeriphClockCmd ; 0x8000e18
        0x080013d6:    2101        .!      MOVS     r1,#1
        0x080013d8:    0388        ..      LSLS     r0,r1,#14
        0x080013da:    f7fffd1d    ....    BL       RCC_APB2PeriphClockCmd ; 0x8000e18
        0x080013de:    f44f7000    O..p    MOV      r0,#0x200
        0x080013e2:    f8ad0000    ....    STRH     r0,[sp,#0]
        0x080013e6:    f88d5003    ...P    STRB     r5,[sp,#3]
        0x080013ea:    f88d6002    ...`    STRB     r6,[sp,#2]
        0x080013ee:    4669        iF      MOV      r1,sp
        0x080013f0:    4658        XF      MOV      r0,r11
        0x080013f2:    f7fffc32    ..2.    BL       GPIO_Init ; 0x8000c5a
        0x080013f6:    f8ada000    ....    STRH     r10,[sp,#0]
        0x080013fa:    f88d9003    ....    STRB     r9,[sp,#3]
        0x080013fe:    4669        iF      MOV      r1,sp
        0x08001400:    4658        XF      MOV      r0,r11
        0x08001402:    e050        P.      B        0x80014a6 ; USART_driverInit + 278
        0x08001404:    4544        DE      CMP      r4,r8
        0x08001406:    d106        ..      BNE      0x8001416 ; USART_driverInit + 134
        0x08001408:    2101        .!      MOVS     r1,#1
        0x0800140a:    2008        .       MOVS     r0,#8
        0x0800140c:    f7fffd04    ....    BL       RCC_APB2PeriphClockCmd ; 0x8000e18
        0x08001410:    2101        .!      MOVS     r1,#1
        0x08001412:    0488        ..      LSLS     r0,r1,#18
        0x08001414:    e01b        ..      B        0x800144e ; USART_driverInit + 190
        0x08001416:    f1a44080    ...@    SUB      r0,r4,#0x40000000
        0x0800141a:    f5b04098    ...@    SUBS     r0,r0,#0x4c00
        0x0800141e:    d005        ..      BEQ      0x800142c ; USART_driverInit + 156
        0x08001420:    f1a44180    ...A    SUB      r1,r4,#0x40000000
        0x08001424:    f5b141a0    ...A    SUBS     r1,r1,#0x5000
        0x08001428:    d007        ..      BEQ      0x800143a ; USART_driverInit + 170
        0x0800142a:    e012        ..      B        0x8001452 ; USART_driverInit + 194
        0x0800142c:    2101        .!      MOVS     r1,#1
        0x0800142e:    2010        .       MOVS     r0,#0x10
        0x08001430:    f7fffcf2    ....    BL       RCC_APB2PeriphClockCmd ; 0x8000e18
        0x08001434:    2101        .!      MOVS     r1,#1
        0x08001436:    04c8        ..      LSLS     r0,r1,#19
        0x08001438:    e009        ..      B        0x800144e ; USART_driverInit + 190
        0x0800143a:    2101        .!      MOVS     r1,#1
        0x0800143c:    2010        .       MOVS     r0,#0x10
        0x0800143e:    f7fffceb    ....    BL       RCC_APB2PeriphClockCmd ; 0x8000e18
        0x08001442:    2101        .!      MOVS     r1,#1
        0x08001444:    2020                MOVS     r0,#0x20
        0x08001446:    f7fffce7    ....    BL       RCC_APB2PeriphClockCmd ; 0x8000e18
        0x0800144a:    2101        .!      MOVS     r1,#1
        0x0800144c:    0508        ..      LSLS     r0,r1,#20
        0x0800144e:    f7fffccb    ....    BL       RCC_APB1PeriphClockCmd ; 0x8000de8
        0x08001452:    42bc        .B      CMP      r4,r7
        0x08001454:    d112        ..      BNE      0x800147c ; USART_driverInit + 236
        0x08001456:    2004        .       MOVS     r0,#4
        0x08001458:    f8ad0000    ....    STRH     r0,[sp,#0]
        0x0800145c:    f88d5003    ...P    STRB     r5,[sp,#3]
        0x08001460:    f88d6002    ...`    STRB     r6,[sp,#2]
        0x08001464:    4669        iF      MOV      r1,sp
        0x08001466:    4658        XF      MOV      r0,r11
        0x08001468:    f7fffbf7    ....    BL       GPIO_Init ; 0x8000c5a
        0x0800146c:    2008        .       MOVS     r0,#8
        0x0800146e:    f8ad0000    ....    STRH     r0,[sp,#0]
        0x08001472:    f88d9003    ....    STRB     r9,[sp,#3]
        0x08001476:    4669        iF      MOV      r1,sp
        0x08001478:    4658        XF      MOV      r0,r11
        0x0800147a:    e014        ..      B        0x80014a6 ; USART_driverInit + 278
        0x0800147c:    f44f6b00    O..k    MOV      r11,#0x800
        0x08001480:    4544        DE      CMP      r4,r8
        0x08001482:    d113        ..      BNE      0x80014ac ; USART_driverInit + 284
        0x08001484:    f8ada000    ....    STRH     r10,[sp,#0]
        0x08001488:    f88d5003    ...P    STRB     r5,[sp,#3]
        0x0800148c:    4dc2        .M      LDR      r5,[pc,#776] ; [0x8001798] = 0x40010c00
        0x0800148e:    f88d6002    ...`    STRB     r6,[sp,#2]
        0x08001492:    4669        iF      MOV      r1,sp
        0x08001494:    4628        (F      MOV      r0,r5
        0x08001496:    f7fffbe0    ....    BL       GPIO_Init ; 0x8000c5a
        0x0800149a:    f8adb000    ....    STRH     r11,[sp,#0]
        0x0800149e:    f88d9003    ....    STRB     r9,[sp,#3]
        0x080014a2:    4669        iF      MOV      r1,sp
        0x080014a4:    4628        (F      MOV      r0,r5
        0x080014a6:    f7fffbd8    ....    BL       GPIO_Init ; 0x8000c5a
        0x080014aa:    e030        0.      B        0x800150e ; USART_driverInit + 382
        0x080014ac:    48bb        .H      LDR      r0,[pc,#748] ; [0x800179c] = 0x40011000
        0x080014ae:    f1a44180    ...A    SUB      r1,r4,#0x40000000
        0x080014b2:    f5b14198    ...A    SUBS     r1,r1,#0x4c00
        0x080014b6:    d005        ..      BEQ      0x80014c4 ; USART_driverInit + 308
        0x080014b8:    f1a44280    ...B    SUB      r2,r4,#0x40000000
        0x080014bc:    f5b242a0    ...B    SUBS     r2,r2,#0x5000
        0x080014c0:    d011        ..      BEQ      0x80014e6 ; USART_driverInit + 342
        0x080014c2:    e024        $.      B        0x800150e ; USART_driverInit + 382
        0x080014c4:    f8ada000    ....    STRH     r10,[sp,#0]
        0x080014c8:    f88d5003    ...P    STRB     r5,[sp,#3]
        0x080014cc:    f88d6002    ...`    STRB     r6,[sp,#2]
        0x080014d0:    4669        iF      MOV      r1,sp
        0x080014d2:    4605        .F      MOV      r5,r0
        0x080014d4:    f7fffbc1    ....    BL       GPIO_Init ; 0x8000c5a
        0x080014d8:    f8adb000    ....    STRH     r11,[sp,#0]
        0x080014dc:    f88d9003    ....    STRB     r9,[sp,#3]
        0x080014e0:    4669        iF      MOV      r1,sp
        0x080014e2:    4628        (F      MOV      r0,r5
        0x080014e4:    e7df        ..      B        0x80014a6 ; USART_driverInit + 278
        0x080014e6:    f44f5180    O..Q    MOV      r1,#0x1000
        0x080014ea:    f8ad1000    ....    STRH     r1,[sp,#0]
        0x080014ee:    f88d5003    ...P    STRB     r5,[sp,#3]
        0x080014f2:    f88d6002    ...`    STRB     r6,[sp,#2]
        0x080014f6:    4669        iF      MOV      r1,sp
        0x080014f8:    f7fffbaf    ....    BL       GPIO_Init ; 0x8000c5a
        0x080014fc:    2004        .       MOVS     r0,#4
        0x080014fe:    f8ad0000    ....    STRH     r0,[sp,#0]
        0x08001502:    f88d9003    ....    STRB     r9,[sp,#3]
        0x08001506:    4669        iF      MOV      r1,sp
        0x08001508:    48a5        .H      LDR      r0,[pc,#660] ; [0x80017a0] = 0x40011400
        0x0800150a:    f7fffba6    ....    BL       GPIO_Init ; 0x8000c5a
        0x0800150e:    e9dd0a0e    ....    LDRD     r0,r10,[sp,#0x38]
        0x08001512:    2500        .%      MOVS     r5,#0
        0x08001514:    9000        ..      STR      r0,[sp,#0]
        0x08001516:    f8dd9040    ..@.    LDR      r9,[sp,#0x40]
        0x0800151a:    f8ad5008    ...P    STRH     r5,[sp,#8]
        0x0800151e:    200c        .       MOVS     r0,#0xc
        0x08001520:    f8ad5004    ...P    STRH     r5,[sp,#4]
        0x08001524:    f8ad000a    ....    STRH     r0,[sp,#0xa]
        0x08001528:    f8ad5006    ...P    STRH     r5,[sp,#6]
        0x0800152c:    f8ad500c    ...P    STRH     r5,[sp,#0xc]
        0x08001530:    4669        iF      MOV      r1,sp
        0x08001532:    4620         F      MOV      r0,r4
        0x08001534:    f7fffece    ....    BL       USART_Init ; 0x80012d4
        0x08001538:    4e9a        .N      LDR      r6,[pc,#616] ; [0x80017a4] = 0x40013800
        0x0800153a:    42b4        .B      CMP      r4,r6
        0x0800153c:    bf08        ..      IT       EQ
        0x0800153e:    2025        %       MOVEQ    r0,#0x25
        0x08001540:    d003        ..      BEQ      0x800154a ; USART_driverInit + 442
        0x08001542:    42bc        .B      CMP      r4,r7
        0x08001544:    bf08        ..      IT       EQ
        0x08001546:    2026        &       MOVEQ    r0,#0x26
        0x08001548:    d102        ..      BNE      0x8001550 ; USART_driverInit + 448
        0x0800154a:    f88d0010    ....    STRB     r0,[sp,#0x10]
        0x0800154e:    e004        ..      B        0x800155a ; USART_driverInit + 458
        0x08001550:    4544        DE      CMP      r4,r8
        0x08001552:    bf04        ..      ITT      EQ
        0x08001554:    2027        '       MOVEQ    r0,#0x27
        0x08001556:    f88d0010    ....    STRBEQ   r0,[sp,#0x10]
        0x0800155a:    f88da011    ....    STRB     r10,[sp,#0x11]
        0x0800155e:    f88d9012    ....    STRB     r9,[sp,#0x12]
        0x08001562:    2001        .       MOVS     r0,#1
        0x08001564:    f88d0013    ....    STRB     r0,[sp,#0x13]
        0x08001568:    a804        ..      ADD      r0,sp,#0x10
        0x0800156a:    f7fffbed    ....    BL       NVIC_Init ; 0x8000d48
        0x0800156e:    2120         !      MOVS     r1,#0x20
        0x08001570:    4620         F      MOV      r0,r4
        0x08001572:    f7fffe03    ....    BL       USART_ClearFlag ; 0x800117c
        0x08001576:    2200        ."      MOVS     r2,#0
        0x08001578:    f2405125    @.%Q    MOV      r1,#0x525
        0x0800157c:    4620         F      MOV      r0,r4
        0x0800157e:    f7fffe90    ....    BL       USART_ITConfig ; 0x80012a2
        0x08001582:    2140        @!      MOVS     r1,#0x40
        0x08001584:    4620         F      MOV      r0,r4
        0x08001586:    f7fffdf9    ....    BL       USART_ClearFlag ; 0x800117c
        0x0800158a:    2200        ."      MOVS     r2,#0
        0x0800158c:    f2406126    @.&a    MOV      r1,#0x626
        0x08001590:    4620         F      MOV      r0,r4
        0x08001592:    f7fffe86    ....    BL       USART_ITConfig ; 0x80012a2
        0x08001596:    2110        .!      MOVS     r1,#0x10
        0x08001598:    4620         F      MOV      r0,r4
        0x0800159a:    f7fffdef    ....    BL       USART_ClearFlag ; 0x800117c
        0x0800159e:    2201        ."      MOVS     r2,#1
        0x080015a0:    f2404124    @.$A    MOV      r1,#0x424
        0x080015a4:    4620         F      MOV      r0,r4
        0x080015a6:    f7fffe7c    ..|.    BL       USART_ITConfig ; 0x80012a2
        0x080015aa:    2101        .!      MOVS     r1,#1
        0x080015ac:    4620         F      MOV      r0,r4
        0x080015ae:    f7fffde8    ....    BL       USART_Cmd ; 0x8001182
        0x080015b2:    2101        .!      MOVS     r1,#1
        0x080015b4:    4608        .F      MOV      r0,r1
        0x080015b6:    f7fffc0b    ....    BL       RCC_AHBPeriphClockCmd ; 0x8000dd0
        0x080015ba:    2101        .!      MOVS     r1,#1
        0x080015bc:    2002        .       MOVS     r0,#2
        0x080015be:    f7fffc07    ....    BL       RCC_AHBPeriphClockCmd ; 0x8000dd0
        0x080015c2:    4668        hF      MOV      r0,sp
        0x080015c4:    f7fffaf7    ....    BL       DMA_StructInit ; 0x8000bb6
        0x080015c8:    f8dfb1dc    ....    LDR      r11,[pc,#476] ; [0x80017a8] = 0x40020044
        0x080015cc:    f8dfa1dc    ....    LDR      r10,[pc,#476] ; [0x80017ac] = 0x40020080
        0x080015d0:    42b4        .B      CMP      r4,r6
        0x080015d2:    d108        ..      BNE      0x80015e6 ; USART_driverInit + 598
        0x080015d4:    2100        .!      MOVS     r1,#0
        0x080015d6:    4658        XF      MOV      r0,r11
        0x080015d8:    f7fffa1a    ....    BL       DMA_Cmd ; 0x8000a10
        0x080015dc:    4658        XF      MOV      r0,r11
        0x080015de:    f7fffa21    ..!.    BL       DMA_DeInit ; 0x8000a24
        0x080015e2:    4873        sH      LDR      r0,[pc,#460] ; [0x80017b0] = 0x40013804
        0x080015e4:    e009        ..      B        0x80015fa ; USART_driverInit + 618
        0x080015e6:    42bc        .B      CMP      r4,r7
        0x080015e8:    d109        ..      BNE      0x80015fe ; USART_driverInit + 622
        0x080015ea:    2100        .!      MOVS     r1,#0
        0x080015ec:    4650        PF      MOV      r0,r10
        0x080015ee:    f7fffa0f    ....    BL       DMA_Cmd ; 0x8000a10
        0x080015f2:    4650        PF      MOV      r0,r10
        0x080015f4:    f7fffa16    ....    BL       DMA_DeInit ; 0x8000a24
        0x080015f8:    486e        nH      LDR      r0,[pc,#440] ; [0x80017b4] = 0x40004404
        0x080015fa:    9000        ..      STR      r0,[sp,#0]
        0x080015fc:    e00c        ..      B        0x8001618 ; USART_driverInit + 648
        0x080015fe:    4544        DE      CMP      r4,r8
        0x08001600:    d10a        ..      BNE      0x8001618 ; USART_driverInit + 648
        0x08001602:    f8df91b4    ....    LDR      r9,[pc,#436] ; [0x80017b8] = 0x4002001c
        0x08001606:    2100        .!      MOVS     r1,#0
        0x08001608:    4648        HF      MOV      r0,r9
        0x0800160a:    f7fffa01    ....    BL       DMA_Cmd ; 0x8000a10
        0x0800160e:    4648        HF      MOV      r0,r9
        0x08001610:    f7fffa08    ....    BL       DMA_DeInit ; 0x8000a24
        0x08001614:    4869        iH      LDR      r0,[pc,#420] ; [0x80017bc] = 0x40004804
        0x08001616:    9000        ..      STR      r0,[sp,#0]
        0x08001618:    2010        .       MOVS     r0,#0x10
        0x0800161a:    e9cd5001    ...P    STRD     r5,r0,[sp,#4]
        0x0800161e:    f04f0980    O...    MOV      r9,#0x80
        0x08001622:    e9cd5904    ...Y    STRD     r5,r9,[sp,#0x10]
        0x08001626:    0240        @.      LSLS     r0,r0,#9
        0x08001628:    9503        ..      STR      r5,[sp,#0xc]
        0x0800162a:    e9cd5008    ...P    STRD     r5,r0,[sp,#0x20]
        0x0800162e:    9506        ..      STR      r5,[sp,#0x18]
        0x08001630:    9507        ..      STR      r5,[sp,#0x1c]
        0x08001632:    950a        ..      STR      r5,[sp,#0x28]
        0x08001634:    42b4        .B      CMP      r4,r6
        0x08001636:    d105        ..      BNE      0x8001644 ; USART_driverInit + 692
        0x08001638:    4669        iF      MOV      r1,sp
        0x0800163a:    4658        XF      MOV      r0,r11
        0x0800163c:    f7fffa90    ....    BL       DMA_Init ; 0x8000b60
        0x08001640:    200e        .       MOVS     r0,#0xe
        0x08001642:    e006        ..      B        0x8001652 ; USART_driverInit + 706
        0x08001644:    42bc        .B      CMP      r4,r7
        0x08001646:    d107        ..      BNE      0x8001658 ; USART_driverInit + 712
        0x08001648:    4669        iF      MOV      r1,sp
        0x0800164a:    4650        PF      MOV      r0,r10
        0x0800164c:    f7fffa88    ....    BL       DMA_Init ; 0x8000b60
        0x08001650:    2011        .       MOVS     r0,#0x11
        0x08001652:    f88d002c    ..,.    STRB     r0,[sp,#0x2c]
        0x08001656:    e008        ..      B        0x800166a ; USART_driverInit + 730
        0x08001658:    4544        DE      CMP      r4,r8
        0x0800165a:    d106        ..      BNE      0x800166a ; USART_driverInit + 730
        0x0800165c:    4669        iF      MOV      r1,sp
        0x0800165e:    4856        VH      LDR      r0,[pc,#344] ; [0x80017b8] = 0x4002001c
        0x08001660:    f7fffa7e    ..~.    BL       DMA_Init ; 0x8000b60
        0x08001664:    200c        .       MOVS     r0,#0xc
        0x08001666:    f88d002c    ..,.    STRB     r0,[sp,#0x2c]
        0x0800166a:    2006        .       MOVS     r0,#6
        0x0800166c:    f88d002d    ..-.    STRB     r0,[sp,#0x2d]
        0x08001670:    f88d502e    ...P    STRB     r5,[sp,#0x2e]
        0x08001674:    2001        .       MOVS     r0,#1
        0x08001676:    f88d002f    ../.    STRB     r0,[sp,#0x2f]
        0x0800167a:    a80b        ..      ADD      r0,sp,#0x2c
        0x0800167c:    f7fffb64    ..d.    BL       NVIC_Init ; 0x8000d48
        0x08001680:    42b4        .B      CMP      r4,r6
        0x08001682:    d10b        ..      BNE      0x800169c ; USART_driverInit + 780
        0x08001684:    f44f5080    O..P    MOV      r0,#0x1000
        0x08001688:    f7fff9aa    ....    BL       DMA_ClearFlag ; 0x80009e0
        0x0800168c:    2200        ."      MOVS     r2,#0
        0x0800168e:    2102        .!      MOVS     r1,#2
        0x08001690:    4658        XF      MOV      r0,r11
        0x08001692:    f7fffa5d    ..].    BL       DMA_ITConfig ; 0x8000b50
        0x08001696:    2100        .!      MOVS     r1,#0
        0x08001698:    4658        XF      MOV      r0,r11
        0x0800169a:    e00c        ..      B        0x80016b6 ; USART_driverInit + 806
        0x0800169c:    42bc        .B      CMP      r4,r7
        0x0800169e:    d10d        ..      BNE      0x80016bc ; USART_driverInit + 812
        0x080016a0:    f04f7080    O..p    MOV      r0,#0x1000000
        0x080016a4:    f7fff99c    ....    BL       DMA_ClearFlag ; 0x80009e0
        0x080016a8:    2200        ."      MOVS     r2,#0
        0x080016aa:    2102        .!      MOVS     r1,#2
        0x080016ac:    4650        PF      MOV      r0,r10
        0x080016ae:    f7fffa4f    ..O.    BL       DMA_ITConfig ; 0x8000b50
        0x080016b2:    2100        .!      MOVS     r1,#0
        0x080016b4:    4650        PF      MOV      r0,r10
        0x080016b6:    f7fff9ab    ....    BL       DMA_Cmd ; 0x8000a10
        0x080016ba:    e00f        ..      B        0x80016dc ; USART_driverInit + 844
        0x080016bc:    4544        DE      CMP      r4,r8
        0x080016be:    d10d        ..      BNE      0x80016dc ; USART_driverInit + 844
        0x080016c0:    2010        .       MOVS     r0,#0x10
        0x080016c2:    f7fff98d    ....    BL       DMA_ClearFlag ; 0x80009e0
        0x080016c6:    f8dfa0f0    ....    LDR      r10,[pc,#240] ; [0x80017b8] = 0x4002001c
        0x080016ca:    2200        ."      MOVS     r2,#0
        0x080016cc:    2102        .!      MOVS     r1,#2
        0x080016ce:    4650        PF      MOV      r0,r10
        0x080016d0:    f7fffa3e    ..>.    BL       DMA_ITConfig ; 0x8000b50
        0x080016d4:    2100        .!      MOVS     r1,#0
        0x080016d6:    4650        PF      MOV      r0,r10
        0x080016d8:    f7fff99a    ....    BL       DMA_Cmd ; 0x8000a10
        0x080016dc:    2101        .!      MOVS     r1,#1
        0x080016de:    4608        .F      MOV      r0,r1
        0x080016e0:    f7fffb76    ..v.    BL       RCC_AHBPeriphClockCmd ; 0x8000dd0
        0x080016e4:    2101        .!      MOVS     r1,#1
        0x080016e6:    2002        .       MOVS     r0,#2
        0x080016e8:    f7fffb72    ..r.    BL       RCC_AHBPeriphClockCmd ; 0x8000dd0
        0x080016ec:    4668        hF      MOV      r0,sp
        0x080016ee:    f7fffa62    ..b.    BL       DMA_StructInit ; 0x8000bb6
        0x080016f2:    f8dfa0cc    ....    LDR      r10,[pc,#204] ; [0x80017c0] = 0x40020058
        0x080016f6:    f8dfb0cc    ....    LDR      r11,[pc,#204] ; [0x80017c4] = 0x4002006c
        0x080016fa:    42b4        .B      CMP      r4,r6
        0x080016fc:    d10b        ..      BNE      0x8001716 ; USART_driverInit + 902
        0x080016fe:    2100        .!      MOVS     r1,#0
        0x08001700:    4650        PF      MOV      r0,r10
        0x08001702:    f7fff985    ....    BL       DMA_Cmd ; 0x8000a10
        0x08001706:    4650        PF      MOV      r0,r10
        0x08001708:    f7fff98c    ....    BL       DMA_DeInit ; 0x8000a24
        0x0800170c:    4828        (H      LDR      r0,[pc,#160] ; [0x80017b0] = 0x40013804
        0x0800170e:    9000        ..      STR      r0,[sp,#0]
        0x08001710:    482d        -H      LDR      r0,[pc,#180] ; [0x80017c8] = 0x20002b1a
        0x08001712:    9001        ..      STR      r0,[sp,#4]
        0x08001714:    e01a        ..      B        0x800174c ; USART_driverInit + 956
        0x08001716:    42bc        .B      CMP      r4,r7
        0x08001718:    d10b        ..      BNE      0x8001732 ; USART_driverInit + 930
        0x0800171a:    2100        .!      MOVS     r1,#0
        0x0800171c:    4658        XF      MOV      r0,r11
        0x0800171e:    f7fff977    ..w.    BL       DMA_Cmd ; 0x8000a10
        0x08001722:    4658        XF      MOV      r0,r11
        0x08001724:    f7fff97e    ..~.    BL       DMA_DeInit ; 0x8000a24
        0x08001728:    4822        "H      LDR      r0,[pc,#136] ; [0x80017b4] = 0x40004404
        0x0800172a:    9000        ..      STR      r0,[sp,#0]
        0x0800172c:    4827        'H      LDR      r0,[pc,#156] ; [0x80017cc] = 0x20002b9c
        0x0800172e:    9001        ..      STR      r0,[sp,#4]
        0x08001730:    e00c        ..      B        0x800174c ; USART_driverInit + 956
        0x08001732:    4544        DE      CMP      r4,r8
        0x08001734:    d10a        ..      BNE      0x800174c ; USART_driverInit + 956
        0x08001736:    2100        .!      MOVS     r1,#0
        0x08001738:    4825        %H      LDR      r0,[pc,#148] ; [0x80017d0] = 0x40020030
        0x0800173a:    f7fff969    ..i.    BL       DMA_Cmd ; 0x8000a10
        0x0800173e:    4824        $H      LDR      r0,[pc,#144] ; [0x80017d0] = 0x40020030
        0x08001740:    f7fff970    ..p.    BL       DMA_DeInit ; 0x8000a24
        0x08001744:    481d        .H      LDR      r0,[pc,#116] ; [0x80017bc] = 0x40004804
        0x08001746:    9000        ..      STR      r0,[sp,#0]
        0x08001748:    4822        "H      LDR      r0,[pc,#136] ; [0x80017d4] = 0x20002c1e
        0x0800174a:    9001        ..      STR      r0,[sp,#4]
        0x0800174c:    e9cd5902    ...Y    STRD     r5,r9,[sp,#8]
        0x08001750:    e9cd5904    ...Y    STRD     r5,r9,[sp,#0x10]
        0x08001754:    f44f5000    O..P    MOV      r0,#0x2000
        0x08001758:    e9cd5008    ...P    STRD     r5,r0,[sp,#0x20]
        0x0800175c:    9506        ..      STR      r5,[sp,#0x18]
        0x0800175e:    9507        ..      STR      r5,[sp,#0x1c]
        0x08001760:    950a        ..      STR      r5,[sp,#0x28]
        0x08001762:    42b4        .B      CMP      r4,r6
        0x08001764:    d106        ..      BNE      0x8001774 ; USART_driverInit + 996
        0x08001766:    4669        iF      MOV      r1,sp
        0x08001768:    4650        PF      MOV      r0,r10
        0x0800176a:    f7fff9f9    ....    BL       DMA_Init ; 0x8000b60
        0x0800176e:    2101        .!      MOVS     r1,#1
        0x08001770:    4650        PF      MOV      r0,r10
        0x08001772:    e007        ..      B        0x8001784 ; USART_driverInit + 1012
        0x08001774:    42bc        .B      CMP      r4,r7
        0x08001776:    d12f        /.      BNE      0x80017d8 ; USART_driverInit + 1096
        0x08001778:    4669        iF      MOV      r1,sp
        0x0800177a:    4658        XF      MOV      r0,r11
        0x0800177c:    f7fff9f0    ....    BL       DMA_Init ; 0x8000b60
        0x08001780:    2101        .!      MOVS     r1,#1
        0x08001782:    4658        XF      MOV      r0,r11
        0x08001784:    f7fff944    ..D.    BL       DMA_Cmd ; 0x8000a10
        0x08001788:    e031        1.      B        0x80017ee ; USART_driverInit + 1118
    $d
        0x0800178a:    0000        ..      DCW    0
        0x0800178c:    40010800    ...@    DCD    1073809408
        0x08001790:    40004400    .D.@    DCD    1073759232
        0x08001794:    40004800    .H.@    DCD    1073760256
        0x08001798:    40010c00    ...@    DCD    1073810432
        0x0800179c:    40011000    ...@    DCD    1073811456
        0x080017a0:    40011400    ...@    DCD    1073812480
        0x080017a4:    40013800    .8.@    DCD    1073821696
        0x080017a8:    40020044    D..@    DCD    1073872964
        0x080017ac:    40020080    ...@    DCD    1073873024
        0x080017b0:    40013804    .8.@    DCD    1073821700
        0x080017b4:    40004404    .D.@    DCD    1073759236
        0x080017b8:    4002001c    ...@    DCD    1073872924
        0x080017bc:    40004804    .H.@    DCD    1073760260
        0x080017c0:    40020058    X..@    DCD    1073872984
        0x080017c4:    4002006c    l..@    DCD    1073873004
        0x080017c8:    20002b1a    .+.     DCD    536881946
        0x080017cc:    20002b9c    .+.     DCD    536882076
        0x080017d0:    40020030    0..@    DCD    1073872944
        0x080017d4:    20002c1e    .,.     DCD    536882206
    $t
        0x080017d8:    4544        DE      CMP      r4,r8
        0x080017da:    d108        ..      BNE      0x80017ee ; USART_driverInit + 1118
        0x080017dc:    4d0a        .M      LDR      r5,[pc,#40] ; [0x8001808] = 0x40020030
        0x080017de:    4669        iF      MOV      r1,sp
        0x080017e0:    4628        (F      MOV      r0,r5
        0x080017e2:    f7fff9bd    ....    BL       DMA_Init ; 0x8000b60
        0x080017e6:    2101        .!      MOVS     r1,#1
        0x080017e8:    4628        (F      MOV      r0,r5
        0x080017ea:    f7fff911    ....    BL       DMA_Cmd ; 0x8000a10
        0x080017ee:    2201        ."      MOVS     r2,#1
        0x080017f0:    2180        .!      MOVS     r1,#0x80
        0x080017f2:    4620         F      MOV      r0,r4
        0x080017f4:    f7fffcce    ....    BL       USART_DMACmd ; 0x8001194
        0x080017f8:    b011        ..      ADD      sp,sp,#0x44
        0x080017fa:    4620         F      MOV      r0,r4
        0x080017fc:    e8bd4ff0    ...O    POP      {r4-r11,lr}
        0x08001800:    2201        ."      MOVS     r2,#1
        0x08001802:    2140        @!      MOVS     r1,#0x40
        0x08001804:    f7ffbcc6    ....    B.W      USART_DMACmd ; 0x8001194
    $d
        0x08001808:    40020030    0..@    DCD    1073872944
    $t
    i.USB_LP_CAN1_RX0_IRQHandler
    USB_LP_CAN1_RX0_IRQHandler
        0x0800180c:    b500        ..      PUSH     {lr}
        0x0800180e:    b085        ..      SUB      sp,sp,#0x14
        0x08001810:    4a0c        .J      LDR      r2,[pc,#48] ; [0x8001844] = 0x20002cb4
        0x08001812:    2100        .!      MOVS     r1,#0
        0x08001814:    480c        .H      LDR      r0,[pc,#48] ; [0x8001848] = 0x40006400
        0x08001816:    f7feffa5    ....    BL       CAN_Receive ; 0x8000764
        0x0800181a:    480a        .H      LDR      r0,[pc,#40] ; [0x8001844] = 0x20002cb4
        0x0800181c:    f10d0e04    ....    ADD      lr,sp,#4
        0x08001820:    7bc1        .{      LDRB     r1,[r0,#0xf]
        0x08001822:    f890c012    ....    LDRB     r12,[r0,#0x12]
        0x08001826:    7c43        C|      LDRB     r3,[r0,#0x11]
        0x08001828:    7c02        .|      LDRB     r2,[r0,#0x10]
        0x0800182a:    e88e100e    ....    STM      lr,{r1-r3,r12}
        0x0800182e:    7b81        .{      LDRB     r1,[r0,#0xe]
        0x08001830:    9100        ..      STR      r1,[sp,#0]
        0x08001832:    7b43        C{      LDRB     r3,[r0,#0xd]
        0x08001834:    7b02        .{      LDRB     r2,[r0,#0xc]
        0x08001836:    7ac1        .z      LDRB     r1,[r0,#0xb]
        0x08001838:    a004        ..      ADR      r0,{pc}+0x14 ; 0x800184c
        0x0800183a:    f000f81f    ....    BL       __0printf$8 ; 0x800187c
        0x0800183e:    b005        ..      ADD      sp,sp,#0x14
        0x08001840:    bd00        ..      POP      {pc}
    $d
        0x08001842:    0000        ..      DCW    0
        0x08001844:    20002cb4    .,.     DCD    536882356
        0x08001848:    40006400    .d.@    DCD    1073767424
        0x0800184c:    36743863    c8t6    DCD    913586275
        0x08001850:    6e61635f    _can    DCD    1851876191
        0x08001854:    7832253a    :%2x    DCD    2016552250
        0x08001858:    7832252c    ,%2x    DCD    2016552236
        0x0800185c:    7832252c    ,%2x    DCD    2016552236
        0x08001860:    7832252c    ,%2x    DCD    2016552236
        0x08001864:    7832252c    ,%2x    DCD    2016552236
        0x08001868:    7832252c    ,%2x    DCD    2016552236
        0x0800186c:    7832252c    ,%2x    DCD    2016552236
        0x08001870:    7832252c    ,%2x    DCD    2016552236
        0x08001874:    0000000d    ....    DCD    13
    $t
    i.UsageFault_Handler
    UsageFault_Handler
        0x08001878:    e7fe        ..      B        UsageFault_Handler ; 0x8001878
        0x0800187a:    0000        ..      MOVS     r0,r0
    i.__0printf$8
    __0printf$8
    __1printf$8
    __2printf
        0x0800187c:    b40f        ..      PUSH     {r0-r3}
        0x0800187e:    4b05        .K      LDR      r3,[pc,#20] ; [0x8001894] = 0x8001ded
        0x08001880:    b510        ..      PUSH     {r4,lr}
        0x08001882:    a903        ..      ADD      r1,sp,#0xc
        0x08001884:    4a04        .J      LDR      r2,[pc,#16] ; [0x8001898] = 0x20000058
        0x08001886:    9802        ..      LDR      r0,[sp,#8]
        0x08001888:    f000f840    ..@.    BL       _printf_core ; 0x800190c
        0x0800188c:    bc10        ..      POP      {r4}
        0x0800188e:    f85dfb14    ]...    LDR      pc,[sp],#0x14
    $d
        0x08001892:    0000        ..      DCW    0
        0x08001894:    08001ded    ....    DCD    134225389
        0x08001898:    20000058    X..     DCD    536871000
    $t
    i.__ARM_common_memclr4_8
    __ARM_common_memclr4_8
        0x0800189c:    2100        .!      MOVS     r1,#0
        0x0800189e:    6001        .`      STR      r1,[r0,#0]
        0x080018a0:    6041        A`      STR      r1,[r0,#4]
        0x080018a2:    4770        pG      BX       lr
    i.__scatterload_copy
    __scatterload_copy
        0x080018a4:    e002        ..      B        0x80018ac ; __scatterload_copy + 8
        0x080018a6:    c808        ..      LDM      r0!,{r3}
        0x080018a8:    1f12        ..      SUBS     r2,r2,#4
        0x080018aa:    c108        ..      STM      r1!,{r3}
        0x080018ac:    2a00        .*      CMP      r2,#0
        0x080018ae:    d1fa        ..      BNE      0x80018a6 ; __scatterload_copy + 2
        0x080018b0:    4770        pG      BX       lr
    i.__scatterload_null
    __scatterload_null
        0x080018b2:    4770        pG      BX       lr
    i.__scatterload_zeroinit
    __scatterload_zeroinit
        0x080018b4:    2000        .       MOVS     r0,#0
        0x080018b6:    e001        ..      B        0x80018bc ; __scatterload_zeroinit + 8
        0x080018b8:    c101        ..      STM      r1!,{r0}
        0x080018ba:    1f12        ..      SUBS     r2,r2,#4
        0x080018bc:    2a00        .*      CMP      r2,#0
        0x080018be:    d1fb        ..      BNE      0x80018b8 ; __scatterload_zeroinit + 4
        0x080018c0:    4770        pG      BX       lr
    i._init_box
    _init_box
        0x080018c2:    f0124f00    ...O    TST      r2,#0x80000000
        0x080018c6:    bf1f        ..      ITTTT    NE
        0x080018c8:    f0224200    "..B    BICNE    r2,r2,#0x80000000
        0x080018cc:    1dd2        ..      ADDNE    r2,r2,#7
        0x080018ce:    f0220307    "...    BICNE    r3,r2,#7
        0x080018d2:    2210        ."      MOVNE    r2,#0x10
        0x080018d4:    bf02        ..      ITTT     EQ
        0x080018d6:    1cd2        ..      ADDEQ    r2,r2,#3
        0x080018d8:    f0220303    "...    BICEQ    r3,r2,#3
        0x080018dc:    220c        ."      MOVEQ    r2,#0xc
        0x080018de:    b11b        ..      CBZ      r3,0x80018e8 ; _init_box + 38
        0x080018e0:    eb030c02    ....    ADD      r12,r3,r2
        0x080018e4:    458c        .E      CMP      r12,r1
        0x080018e6:    d901        ..      BLS      0x80018ec ; _init_box + 42
        0x080018e8:    2001        .       MOVS     r0,#1
        0x080018ea:    4770        pG      BX       lr
        0x080018ec:    4402        .D      ADD      r2,r2,r0
        0x080018ee:    4401        .D      ADD      r1,r1,r0
        0x080018f0:    6083        .`      STR      r3,[r0,#8]
        0x080018f2:    e9c02100    ...!    STRD     r2,r1,[r0,#0]
        0x080018f6:    1ac9        ..      SUBS     r1,r1,r3
        0x080018f8:    18d0        ..      ADDS     r0,r2,r3
        0x080018fa:    4288        .B      CMP      r0,r1
        0x080018fc:    bf9c        ..      ITT      LS
        0x080018fe:    6010        .`      STRLS    r0,[r2,#0]
        0x08001900:    4602        .F      MOVLS    r2,r0
        0x08001902:    d9f9        ..      BLS      0x80018f8 ; _init_box + 54
        0x08001904:    2000        .       MOVS     r0,#0
        0x08001906:    6010        .`      STR      r0,[r2,#0]
        0x08001908:    4770        pG      BX       lr
        0x0800190a:    0000        ..      MOVS     r0,r0
    i._printf_core
    _printf_core
        0x0800190c:    e92d4fff    -..O    PUSH     {r0-r11,lr}
        0x08001910:    b08d        ..      SUB      sp,sp,#0x34
        0x08001912:    460f        .F      MOV      r7,r1
        0x08001914:    4605        .F      MOV      r5,r0
        0x08001916:    2600        .&      MOVS     r6,#0
        0x08001918:    e006        ..      B        0x8001928 ; _printf_core + 28
        0x0800191a:    2825        %(      CMP      r0,#0x25
        0x0800191c:    d00b        ..      BEQ      0x8001936 ; _printf_core + 42
        0x0800191e:    e9dd120f    ....    LDRD     r1,r2,[sp,#0x3c]
        0x08001922:    4790        .G      BLX      r2
        0x08001924:    1c6d        m.      ADDS     r5,r5,#1
        0x08001926:    1c76        v.      ADDS     r6,r6,#1
        0x08001928:    7828        (x      LDRB     r0,[r5,#0]
        0x0800192a:    2800        .(      CMP      r0,#0
        0x0800192c:    d1f5        ..      BNE      0x800191a ; _printf_core + 14
        0x0800192e:    b011        ..      ADD      sp,sp,#0x44
        0x08001930:    4630        0F      MOV      r0,r6
        0x08001932:    e8bd8ff0    ....    POP      {r4-r11,pc}
        0x08001936:    2400        .$      MOVS     r4,#0
        0x08001938:    46a2        .F      MOV      r10,r4
        0x0800193a:    46a1        .F      MOV      r9,r4
        0x0800193c:    2201        ."      MOVS     r2,#1
        0x0800193e:    49ec        .I      LDR      r1,[pc,#944] ; [0x8001cf0] = 0x12809
        0x08001940:    e000        ..      B        0x8001944 ; _printf_core + 56
        0x08001942:    4304        .C      ORRS     r4,r4,r0
        0x08001944:    f8153f01    ...?    LDRB     r3,[r5,#1]!
        0x08001948:    3b20         ;      SUBS     r3,r3,#0x20
        0x0800194a:    fa02f003    ....    LSL      r0,r2,r3
        0x0800194e:    4208        .B      TST      r0,r1
        0x08001950:    d1f7        ..      BNE      0x8001942 ; _printf_core + 54
        0x08001952:    7828        (x      LDRB     r0,[r5,#0]
        0x08001954:    282a        *(      CMP      r0,#0x2a
        0x08001956:    d010        ..      BEQ      0x800197a ; _printf_core + 110
        0x08001958:    f06f022f    o./.    MVN      r2,#0x2f
        0x0800195c:    7828        (x      LDRB     r0,[r5,#0]
        0x0800195e:    f1a00130    ..0.    SUB      r1,r0,#0x30
        0x08001962:    2909        .)      CMP      r1,#9
        0x08001964:    d814        ..      BHI      0x8001990 ; _printf_core + 132
        0x08001966:    eb0a018a    ....    ADD      r1,r10,r10,LSL #2
        0x0800196a:    eb020141    ..A.    ADD      r1,r2,r1,LSL #1
        0x0800196e:    f0440402    D...    ORR      r4,r4,#2
        0x08001972:    eb000a01    ....    ADD      r10,r0,r1
        0x08001976:    1c6d        m.      ADDS     r5,r5,#1
        0x08001978:    e7f0        ..      B        0x800195c ; _printf_core + 80
        0x0800197a:    cf01        ..      LDM      r7!,{r0}
        0x0800197c:    ea5f0a00    _...    MOVS     r10,r0
        0x08001980:    d503        ..      BPL      0x800198a ; _printf_core + 126
        0x08001982:    f4445400    D..T    ORR      r4,r4,#0x2000
        0x08001986:    f1ca0a00    ....    RSB      r10,r10,#0
        0x0800198a:    f0440402    D...    ORR      r4,r4,#2
        0x0800198e:    1c6d        m.      ADDS     r5,r5,#1
        0x08001990:    7828        (x      LDRB     r0,[r5,#0]
        0x08001992:    282e        .(      CMP      r0,#0x2e
        0x08001994:    d117        ..      BNE      0x80019c6 ; _printf_core + 186
        0x08001996:    f8150f01    ....    LDRB     r0,[r5,#1]!
        0x0800199a:    f0440404    D...    ORR      r4,r4,#4
        0x0800199e:    282a        *(      CMP      r0,#0x2a
        0x080019a0:    d00e        ..      BEQ      0x80019c0 ; _printf_core + 180
        0x080019a2:    f06f022f    o./.    MVN      r2,#0x2f
        0x080019a6:    7828        (x      LDRB     r0,[r5,#0]
        0x080019a8:    f1a00130    ..0.    SUB      r1,r0,#0x30
        0x080019ac:    2909        .)      CMP      r1,#9
        0x080019ae:    d80a        ..      BHI      0x80019c6 ; _printf_core + 186
        0x080019b0:    eb090189    ....    ADD      r1,r9,r9,LSL #2
        0x080019b4:    eb020141    ..A.    ADD      r1,r2,r1,LSL #1
        0x080019b8:    eb000901    ....    ADD      r9,r0,r1
        0x080019bc:    1c6d        m.      ADDS     r5,r5,#1
        0x080019be:    e7f2        ..      B        0x80019a6 ; _printf_core + 154
        0x080019c0:    f8579b04    W...    LDR      r9,[r7],#4
        0x080019c4:    1c6d        m.      ADDS     r5,r5,#1
        0x080019c6:    7828        (x      LDRB     r0,[r5,#0]
        0x080019c8:    286c        l(      CMP      r0,#0x6c
        0x080019ca:    d00f        ..      BEQ      0x80019ec ; _printf_core + 224
        0x080019cc:    dc06        ..      BGT      0x80019dc ; _printf_core + 208
        0x080019ce:    284c        L(      CMP      r0,#0x4c
        0x080019d0:    d017        ..      BEQ      0x8001a02 ; _printf_core + 246
        0x080019d2:    2868        h(      CMP      r0,#0x68
        0x080019d4:    d00d        ..      BEQ      0x80019f2 ; _printf_core + 230
        0x080019d6:    286a        j(      CMP      r0,#0x6a
        0x080019d8:    d114        ..      BNE      0x8001a04 ; _printf_core + 248
        0x080019da:    e004        ..      B        0x80019e6 ; _printf_core + 218
        0x080019dc:    2874        t(      CMP      r0,#0x74
        0x080019de:    d010        ..      BEQ      0x8001a02 ; _printf_core + 246
        0x080019e0:    287a        z(      CMP      r0,#0x7a
        0x080019e2:    d10f        ..      BNE      0x8001a04 ; _printf_core + 248
        0x080019e4:    e00d        ..      B        0x8001a02 ; _printf_core + 246
        0x080019e6:    f4441400    D...    ORR      r4,r4,#0x200000
        0x080019ea:    e00a        ..      B        0x8001a02 ; _printf_core + 246
        0x080019ec:    f4441480    D...    ORR      r4,r4,#0x100000
        0x080019f0:    e001        ..      B        0x80019f6 ; _printf_core + 234
        0x080019f2:    f4441440    D.@.    ORR      r4,r4,#0x300000
        0x080019f6:    7869        ix      LDRB     r1,[r5,#1]
        0x080019f8:    4281        .B      CMP      r1,r0
        0x080019fa:    d102        ..      BNE      0x8001a02 ; _printf_core + 246
        0x080019fc:    f5041480    ....    ADD      r4,r4,#0x100000
        0x08001a00:    1c6d        m.      ADDS     r5,r5,#1
        0x08001a02:    1c6d        m.      ADDS     r5,r5,#1
        0x08001a04:    782a        *x      LDRB     r2,[r5,#0]
        0x08001a06:    2a6e        n*      CMP      r2,#0x6e
        0x08001a08:    d01f        ..      BEQ      0x8001a4a ; _printf_core + 318
        0x08001a0a:    dc0c        ..      BGT      0x8001a26 ; _printf_core + 282
        0x08001a0c:    2a63        c*      CMP      r2,#0x63
        0x08001a0e:    d031        1.      BEQ      0x8001a74 ; _printf_core + 360
        0x08001a10:    dc04        ..      BGT      0x8001a1c ; _printf_core + 272
        0x08001a12:    2a00        .*      CMP      r2,#0
        0x08001a14:    d08b        ..      BEQ      0x800192e ; _printf_core + 34
        0x08001a16:    2a58        X*      CMP      r2,#0x58
        0x08001a18:    d111        ..      BNE      0x8001a3e ; _printf_core + 306
        0x08001a1a:    e0a3        ..      B        0x8001b64 ; _printf_core + 600
        0x08001a1c:    2a64        d*      CMP      r2,#0x64
        0x08001a1e:    d068        h.      BEQ      0x8001af2 ; _printf_core + 486
        0x08001a20:    2a69        i*      CMP      r2,#0x69
        0x08001a22:    d10c        ..      BNE      0x8001a3e ; _printf_core + 306
        0x08001a24:    e065        e.      B        0x8001af2 ; _printf_core + 486
        0x08001a26:    2a73        s*      CMP      r2,#0x73
        0x08001a28:    d02e        ..      BEQ      0x8001a88 ; _printf_core + 380
        0x08001a2a:    dc04        ..      BGT      0x8001a36 ; _printf_core + 298
        0x08001a2c:    2a6f        o*      CMP      r2,#0x6f
        0x08001a2e:    d073        s.      BEQ      0x8001b18 ; _printf_core + 524
        0x08001a30:    2a70        p*      CMP      r2,#0x70
        0x08001a32:    d104        ..      BNE      0x8001a3e ; _printf_core + 306
        0x08001a34:    e09b        ..      B        0x8001b6e ; _printf_core + 610
        0x08001a36:    2a75        u*      CMP      r2,#0x75
        0x08001a38:    d06f        o.      BEQ      0x8001b1a ; _printf_core + 526
        0x08001a3a:    2a78        x*      CMP      r2,#0x78
        0x08001a3c:    d06e        n.      BEQ      0x8001b1c ; _printf_core + 528
        0x08001a3e:    4610        .F      MOV      r0,r2
        0x08001a40:    e9dd120f    ....    LDRD     r1,r2,[sp,#0x3c]
        0x08001a44:    4790        .G      BLX      r2
        0x08001a46:    1c76        v.      ADDS     r6,r6,#1
        0x08001a48:    e150        P.      B        0x8001cec ; _printf_core + 992
        0x08001a4a:    f3c45002    ...P    UBFX     r0,r4,#20,#3
        0x08001a4e:    2802        .(      CMP      r0,#2
        0x08001a50:    d006        ..      BEQ      0x8001a60 ; _printf_core + 340
        0x08001a52:    2803        .(      CMP      r0,#3
        0x08001a54:    d009        ..      BEQ      0x8001a6a ; _printf_core + 350
        0x08001a56:    2804        .(      CMP      r0,#4
        0x08001a58:    cf01        ..      LDM      r7!,{r0}
        0x08001a5a:    d009        ..      BEQ      0x8001a70 ; _printf_core + 356
        0x08001a5c:    6006        .`      STR      r6,[r0,#0]
        0x08001a5e:    e145        E.      B        0x8001cec ; _printf_core + 992
        0x08001a60:    cf01        ..      LDM      r7!,{r0}
        0x08001a62:    17f1        ..      ASRS     r1,r6,#31
        0x08001a64:    e9c06100    ...a    STRD     r6,r1,[r0,#0]
        0x08001a68:    e140        @.      B        0x8001cec ; _printf_core + 992
        0x08001a6a:    cf01        ..      LDM      r7!,{r0}
        0x08001a6c:    8006        ..      STRH     r6,[r0,#0]
        0x08001a6e:    e13d        =.      B        0x8001cec ; _printf_core + 992
        0x08001a70:    7006        .p      STRB     r6,[r0,#0]
        0x08001a72:    e13b        ;.      B        0x8001cec ; _printf_core + 992
        0x08001a74:    f8170b04    ....    LDRB     r0,[r7],#4
        0x08001a78:    f88d0000    ....    STRB     r0,[sp,#0]
        0x08001a7c:    2000        .       MOVS     r0,#0
        0x08001a7e:    f88d0001    ....    STRB     r0,[sp,#1]
        0x08001a82:    46eb        .F      MOV      r11,sp
        0x08001a84:    2001        .       MOVS     r0,#1
        0x08001a86:    e003        ..      B        0x8001a90 ; _printf_core + 388
        0x08001a88:    f857bb04    W...    LDR      r11,[r7],#4
        0x08001a8c:    f04f30ff    O..0    MOV      r0,#0xffffffff
        0x08001a90:    0761        a.      LSLS     r1,r4,#29
        0x08001a92:    f04f0100    O...    MOV      r1,#0
        0x08001a96:    d402        ..      BMI      0x8001a9e ; _printf_core + 402
        0x08001a98:    e00d        ..      B        0x8001ab6 ; _printf_core + 426
        0x08001a9a:    f1080101    ....    ADD      r1,r8,#1
        0x08001a9e:    4688        .F      MOV      r8,r1
        0x08001aa0:    4549        IE      CMP      r1,r9
        0x08001aa2:    da0f        ..      BGE      0x8001ac4 ; _printf_core + 440
        0x08001aa4:    4580        .E      CMP      r8,r0
        0x08001aa6:    dbf8        ..      BLT      0x8001a9a ; _printf_core + 398
        0x08001aa8:    f81b1008    ....    LDRB     r1,[r11,r8]
        0x08001aac:    2900        .)      CMP      r1,#0
        0x08001aae:    d1f4        ..      BNE      0x8001a9a ; _printf_core + 398
        0x08001ab0:    e008        ..      B        0x8001ac4 ; _printf_core + 440
        0x08001ab2:    f1080101    ....    ADD      r1,r8,#1
        0x08001ab6:    4688        .F      MOV      r8,r1
        0x08001ab8:    4281        .B      CMP      r1,r0
        0x08001aba:    dbfa        ..      BLT      0x8001ab2 ; _printf_core + 422
        0x08001abc:    f81b1008    ....    LDRB     r1,[r11,r8]
        0x08001ac0:    2900        .)      CMP      r1,#0
        0x08001ac2:    d1f6        ..      BNE      0x8001ab2 ; _printf_core + 422
        0x08001ac4:    e9dd230f    ...#    LDRD     r2,r3,[sp,#0x3c]
        0x08001ac8:    ebaa0008    ....    SUB      r0,r10,r8
        0x08001acc:    4681        .F      MOV      r9,r0
        0x08001ace:    4621        !F      MOV      r1,r4
        0x08001ad0:    f000f936    ..6.    BL       _printf_pre_padding ; 0x8001d40
        0x08001ad4:    4430        0D      ADD      r0,r0,r6
        0x08001ad6:    eb000608    ....    ADD      r6,r0,r8
        0x08001ada:    e004        ..      B        0x8001ae6 ; _printf_core + 474
        0x08001adc:    e9dd120f    ....    LDRD     r1,r2,[sp,#0x3c]
        0x08001ae0:    f81b0b01    ....    LDRB     r0,[r11],#1
        0x08001ae4:    4790        .G      BLX      r2
        0x08001ae6:    f1b80801    ....    SUBS     r8,r8,#1
        0x08001aea:    d2f7        ..      BCS      0x8001adc ; _printf_core + 464
        0x08001aec:    4621        !F      MOV      r1,r4
        0x08001aee:    4648        HF      MOV      r0,r9
        0x08001af0:    e0f7        ..      B        0x8001ce2 ; _printf_core + 982
        0x08001af2:    210a        .!      MOVS     r1,#0xa
        0x08001af4:    f3c45302    ...S    UBFX     r3,r4,#20,#3
        0x08001af8:    f04f0b00    O...    MOV      r11,#0
        0x08001afc:    9108        ..      STR      r1,[sp,#0x20]
        0x08001afe:    2b02        .+      CMP      r3,#2
        0x08001b00:    d004        ..      BEQ      0x8001b0c ; _printf_core + 512
        0x08001b02:    cf01        ..      LDM      r7!,{r0}
        0x08001b04:    17c1        ..      ASRS     r1,r0,#31
        0x08001b06:    2b03        .+      CMP      r3,#3
        0x08001b08:    d009        ..      BEQ      0x8001b1e ; _printf_core + 530
        0x08001b0a:    e00a        ..      B        0x8001b22 ; _printf_core + 534
        0x08001b0c:    1dff        ..      ADDS     r7,r7,#7
        0x08001b0e:    f0270707    '...    BIC      r7,r7,#7
        0x08001b12:    e8f70102    ....    LDRD     r0,r1,[r7],#8
        0x08001b16:    e008        ..      B        0x8001b2a ; _printf_core + 542
        0x08001b18:    e032        2.      B        0x8001b80 ; _printf_core + 628
        0x08001b1a:    e01f        ..      B        0x8001b5c ; _printf_core + 592
        0x08001b1c:    e020         .      B        0x8001b60 ; _printf_core + 596
        0x08001b1e:    b200        ..      SXTH     r0,r0
        0x08001b20:    17c1        ..      ASRS     r1,r0,#31
        0x08001b22:    2b04        .+      CMP      r3,#4
        0x08001b24:    d101        ..      BNE      0x8001b2a ; _printf_core + 542
        0x08001b26:    b240        @.      SXTB     r0,r0
        0x08001b28:    17c1        ..      ASRS     r1,r0,#31
        0x08001b2a:    1e03        ..      SUBS     r3,r0,#0
        0x08001b2c:    f1710300    q...    SBCS     r3,r1,#0
        0x08001b30:    da07        ..      BGE      0x8001b42 ; _printf_core + 566
        0x08001b32:    f04f0c00    O...    MOV      r12,#0
        0x08001b36:    ebd0000c    ....    RSBS     r0,r0,r12
        0x08001b3a:    eb6c0101    l...    SBC      r1,r12,r1
        0x08001b3e:    232d        -#      MOVS     r3,#0x2d
        0x08001b40:    e002        ..      B        0x8001b48 ; _printf_core + 572
        0x08001b42:    0523        #.      LSLS     r3,r4,#20
        0x08001b44:    d504        ..      BPL      0x8001b50 ; _printf_core + 580
        0x08001b46:    232b        +#      MOVS     r3,#0x2b
        0x08001b48:    f88d3024    ..$0    STRB     r3,[sp,#0x24]
        0x08001b4c:    2301        .#      MOVS     r3,#1
        0x08001b4e:    e003        ..      B        0x8001b58 ; _printf_core + 588
        0x08001b50:    07e3        ..      LSLS     r3,r4,#31
        0x08001b52:    d001        ..      BEQ      0x8001b58 ; _printf_core + 588
        0x08001b54:    2320         #      MOVS     r3,#0x20
        0x08001b56:    e7f7        ..      B        0x8001b48 ; _printf_core + 572
        0x08001b58:    4698        .F      MOV      r8,r3
        0x08001b5a:    e058        X.      B        0x8001c0e ; _printf_core + 770
        0x08001b5c:    210a        .!      MOVS     r1,#0xa
        0x08001b5e:    e010        ..      B        0x8001b82 ; _printf_core + 630
        0x08001b60:    2110        .!      MOVS     r1,#0x10
        0x08001b62:    e00e        ..      B        0x8001b82 ; _printf_core + 630
        0x08001b64:    2010        .       MOVS     r0,#0x10
        0x08001b66:    f04f0b00    O...    MOV      r11,#0
        0x08001b6a:    9008        ..      STR      r0,[sp,#0x20]
        0x08001b6c:    e00c        ..      B        0x8001b88 ; _printf_core + 636
        0x08001b6e:    2110        .!      MOVS     r1,#0x10
        0x08001b70:    f04f0b00    O...    MOV      r11,#0
        0x08001b74:    f0440404    D...    ORR      r4,r4,#4
        0x08001b78:    f04f0908    O...    MOV      r9,#8
        0x08001b7c:    9108        ..      STR      r1,[sp,#0x20]
        0x08001b7e:    e003        ..      B        0x8001b88 ; _printf_core + 636
        0x08001b80:    2108        .!      MOVS     r1,#8
        0x08001b82:    f04f0b00    O...    MOV      r11,#0
        0x08001b86:    9108        ..      STR      r1,[sp,#0x20]
        0x08001b88:    f3c45302    ...S    UBFX     r3,r4,#20,#3
        0x08001b8c:    2b02        .+      CMP      r3,#2
        0x08001b8e:    d004        ..      BEQ      0x8001b9a ; _printf_core + 654
        0x08001b90:    cf01        ..      LDM      r7!,{r0}
        0x08001b92:    2100        .!      MOVS     r1,#0
        0x08001b94:    2b03        .+      CMP      r3,#3
        0x08001b96:    d006        ..      BEQ      0x8001ba6 ; _printf_core + 666
        0x08001b98:    e006        ..      B        0x8001ba8 ; _printf_core + 668
        0x08001b9a:    1dff        ..      ADDS     r7,r7,#7
        0x08001b9c:    f0270707    '...    BIC      r7,r7,#7
        0x08001ba0:    e8f70102    ....    LDRD     r0,r1,[r7],#8
        0x08001ba4:    e003        ..      B        0x8001bae ; _printf_core + 674
        0x08001ba6:    b280        ..      UXTH     r0,r0
        0x08001ba8:    2b04        .+      CMP      r3,#4
        0x08001baa:    d100        ..      BNE      0x8001bae ; _printf_core + 674
        0x08001bac:    b2c0        ..      UXTB     r0,r0
        0x08001bae:    f04f0800    O...    MOV      r8,#0
        0x08001bb2:    0723        #.      LSLS     r3,r4,#28
        0x08001bb4:    d52b        +.      BPL      0x8001c0e ; _printf_core + 770
        0x08001bb6:    2a70        p*      CMP      r2,#0x70
        0x08001bb8:    d007        ..      BEQ      0x8001bca ; _printf_core + 702
        0x08001bba:    f8ddc020    .. .    LDR      r12,[sp,#0x20]
        0x08001bbe:    f08c0c10    ....    EOR      r12,r12,#0x10
        0x08001bc2:    ea5c0c0b    \...    ORRS     r12,r12,r11
        0x08001bc6:    d005        ..      BEQ      0x8001bd4 ; _printf_core + 712
        0x08001bc8:    e00e        ..      B        0x8001be8 ; _printf_core + 732
        0x08001bca:    2340        @#      MOVS     r3,#0x40
        0x08001bcc:    f88d3024    ..$0    STRB     r3,[sp,#0x24]
        0x08001bd0:    2301        .#      MOVS     r3,#1
        0x08001bd2:    e008        ..      B        0x8001be6 ; _printf_core + 730
        0x08001bd4:    ea500301    P...    ORRS     r3,r0,r1
        0x08001bd8:    d006        ..      BEQ      0x8001be8 ; _printf_core + 732
        0x08001bda:    2330        0#      MOVS     r3,#0x30
        0x08001bdc:    f88d3024    ..$0    STRB     r3,[sp,#0x24]
        0x08001be0:    f88d2025    ..%     STRB     r2,[sp,#0x25]
        0x08001be4:    2302        .#      MOVS     r3,#2
        0x08001be6:    4698        .F      MOV      r8,r3
        0x08001be8:    f8ddc020    .. .    LDR      r12,[sp,#0x20]
        0x08001bec:    f08c0c08    ....    EOR      r12,r12,#8
        0x08001bf0:    ea5c0c0b    \...    ORRS     r12,r12,r11
        0x08001bf4:    d10b        ..      BNE      0x8001c0e ; _printf_core + 770
        0x08001bf6:    ea500301    P...    ORRS     r3,r0,r1
        0x08001bfa:    d101        ..      BNE      0x8001c00 ; _printf_core + 756
        0x08001bfc:    0763        c.      LSLS     r3,r4,#29
        0x08001bfe:    d506        ..      BPL      0x8001c0e ; _printf_core + 770
        0x08001c00:    2330        0#      MOVS     r3,#0x30
        0x08001c02:    f88d3024    ..$0    STRB     r3,[sp,#0x24]
        0x08001c06:    f04f0801    O...    MOV      r8,#1
        0x08001c0a:    f1a90901    ....    SUB      r9,r9,#1
        0x08001c0e:    2a58        X*      CMP      r2,#0x58
        0x08001c10:    d004        ..      BEQ      0x8001c1c ; _printf_core + 784
        0x08001c12:    a238        8.      ADR      r2,{pc}+0xe2 ; 0x8001cf4
        0x08001c14:    920b        ..      STR      r2,[sp,#0x2c]
        0x08001c16:    aa08        ..      ADD      r2,sp,#0x20
        0x08001c18:    920a        ..      STR      r2,[sp,#0x28]
        0x08001c1a:    e00b        ..      B        0x8001c34 ; _printf_core + 808
        0x08001c1c:    a23a        :.      ADR      r2,{pc}+0xec ; 0x8001d08
        0x08001c1e:    e7f9        ..      B        0x8001c14 ; _printf_core + 776
        0x08001c20:    465b        [F      MOV      r3,r11
        0x08001c22:    9a08        ..      LDR      r2,[sp,#0x20]
        0x08001c24:    f7fefb28    ..(.    BL       __aeabi_uldivmod ; 0x8000278
        0x08001c28:    9b0b        ..      LDR      r3,[sp,#0x2c]
        0x08001c2a:    5c9b        .\      LDRB     r3,[r3,r2]
        0x08001c2c:    9a0a        ..      LDR      r2,[sp,#0x28]
        0x08001c2e:    1e52        R.      SUBS     r2,r2,#1
        0x08001c30:    920a        ..      STR      r2,[sp,#0x28]
        0x08001c32:    7013        .p      STRB     r3,[r2,#0]
        0x08001c34:    ea500201    P...    ORRS     r2,r0,r1
        0x08001c38:    d1f2        ..      BNE      0x8001c20 ; _printf_core + 788
        0x08001c3a:    980a        ..      LDR      r0,[sp,#0x28]
        0x08001c3c:    ebad0000    ....    SUB      r0,sp,r0
        0x08001c40:    f1000b20    .. .    ADD      r11,r0,#0x20
        0x08001c44:    0760        `.      LSLS     r0,r4,#29
        0x08001c46:    d502        ..      BPL      0x8001c4e ; _printf_core + 834
        0x08001c48:    f4243480    $..4    BIC      r4,r4,#0x10000
        0x08001c4c:    e001        ..      B        0x8001c52 ; _printf_core + 838
        0x08001c4e:    f04f0901    O...    MOV      r9,#1
        0x08001c52:    45d9        .E      CMP      r9,r11
        0x08001c54:    dd02        ..      BLE      0x8001c5c ; _printf_core + 848
        0x08001c56:    eba9000b    ....    SUB      r0,r9,r11
        0x08001c5a:    e000        ..      B        0x8001c5e ; _printf_core + 850
        0x08001c5c:    2000        .       MOVS     r0,#0
        0x08001c5e:    eb00010b    ....    ADD      r1,r0,r11
        0x08001c62:    4441        AD      ADD      r1,r1,r8
        0x08001c64:    9008        ..      STR      r0,[sp,#0x20]
        0x08001c66:    ebaa0a01    ....    SUB      r10,r10,r1
        0x08001c6a:    03e0        ..      LSLS     r0,r4,#15
        0x08001c6c:    d406        ..      BMI      0x8001c7c ; _printf_core + 880
        0x08001c6e:    e9dd230f    ...#    LDRD     r2,r3,[sp,#0x3c]
        0x08001c72:    4621        !F      MOV      r1,r4
        0x08001c74:    4650        PF      MOV      r0,r10
        0x08001c76:    f000f863    ..c.    BL       _printf_pre_padding ; 0x8001d40
        0x08001c7a:    4406        .D      ADD      r6,r6,r0
        0x08001c7c:    f04f0900    O...    MOV      r9,#0
        0x08001c80:    e008        ..      B        0x8001c94 ; _printf_core + 904
        0x08001c82:    a909        ..      ADD      r1,sp,#0x24
        0x08001c84:    f8110009    ....    LDRB     r0,[r1,r9]
        0x08001c88:    e9dd120f    ....    LDRD     r1,r2,[sp,#0x3c]
        0x08001c8c:    4790        .G      BLX      r2
        0x08001c8e:    f1090901    ....    ADD      r9,r9,#1
        0x08001c92:    1c76        v.      ADDS     r6,r6,#1
        0x08001c94:    45c1        .E      CMP      r9,r8
        0x08001c96:    dbf4        ..      BLT      0x8001c82 ; _printf_core + 886
        0x08001c98:    03e0        ..      LSLS     r0,r4,#15
        0x08001c9a:    d50c        ..      BPL      0x8001cb6 ; _printf_core + 938
        0x08001c9c:    e9dd230f    ...#    LDRD     r2,r3,[sp,#0x3c]
        0x08001ca0:    4621        !F      MOV      r1,r4
        0x08001ca2:    4650        PF      MOV      r0,r10
        0x08001ca4:    f000f84c    ..L.    BL       _printf_pre_padding ; 0x8001d40
        0x08001ca8:    4406        .D      ADD      r6,r6,r0
        0x08001caa:    e004        ..      B        0x8001cb6 ; _printf_core + 938
        0x08001cac:    e9dd120f    ....    LDRD     r1,r2,[sp,#0x3c]
        0x08001cb0:    2030        0       MOVS     r0,#0x30
        0x08001cb2:    4790        .G      BLX      r2
        0x08001cb4:    1c76        v.      ADDS     r6,r6,#1
        0x08001cb6:    9908        ..      LDR      r1,[sp,#0x20]
        0x08001cb8:    1e48        H.      SUBS     r0,r1,#1
        0x08001cba:    9008        ..      STR      r0,[sp,#0x20]
        0x08001cbc:    2900        .)      CMP      r1,#0
        0x08001cbe:    dcf5        ..      BGT      0x8001cac ; _printf_core + 928
        0x08001cc0:    e008        ..      B        0x8001cd4 ; _printf_core + 968
        0x08001cc2:    980a        ..      LDR      r0,[sp,#0x28]
        0x08001cc4:    990a        ..      LDR      r1,[sp,#0x28]
        0x08001cc6:    7800        .x      LDRB     r0,[r0,#0]
        0x08001cc8:    1c49        I.      ADDS     r1,r1,#1
        0x08001cca:    910a        ..      STR      r1,[sp,#0x28]
        0x08001ccc:    e9dd120f    ....    LDRD     r1,r2,[sp,#0x3c]
        0x08001cd0:    4790        .G      BLX      r2
        0x08001cd2:    1c76        v.      ADDS     r6,r6,#1
        0x08001cd4:    f1bb0100    ....    SUBS     r1,r11,#0
        0x08001cd8:    f1ab0b01    ....    SUB      r11,r11,#1
        0x08001cdc:    dcf1        ..      BGT      0x8001cc2 ; _printf_core + 950
        0x08001cde:    4621        !F      MOV      r1,r4
        0x08001ce0:    4650        PF      MOV      r0,r10
        0x08001ce2:    e9dd230f    ...#    LDRD     r2,r3,[sp,#0x3c]
        0x08001ce6:    f000f819    ....    BL       _printf_post_padding ; 0x8001d1c
        0x08001cea:    4406        .D      ADD      r6,r6,r0
        0x08001cec:    1c6d        m.      ADDS     r5,r5,#1
        0x08001cee:    e61b        ..      B        0x8001928 ; _printf_core + 28
    $d
        0x08001cf0:    00012809    .(..    DCD    75785
        0x08001cf4:    33323130    0123    DCD    858927408
        0x08001cf8:    37363534    4567    DCD    926299444
        0x08001cfc:    62613938    89ab    DCD    1650538808
        0x08001d00:    66656463    cdef    DCD    1717920867
        0x08001d04:    00000000    ....    DCD    0
        0x08001d08:    33323130    0123    DCD    858927408
        0x08001d0c:    37363534    4567    DCD    926299444
        0x08001d10:    42413938    89AB    DCD    1111570744
        0x08001d14:    46454443    CDEF    DCD    1178944579
        0x08001d18:    00000000    ....    DCD    0
    $t
    i._printf_post_padding
    _printf_post_padding
        0x08001d1c:    e92d41f0    -..A    PUSH     {r4-r8,lr}
        0x08001d20:    4604        .F      MOV      r4,r0
        0x08001d22:    2500        .%      MOVS     r5,#0
        0x08001d24:    461e        .F      MOV      r6,r3
        0x08001d26:    4617        .F      MOV      r7,r2
        0x08001d28:    0488        ..      LSLS     r0,r1,#18
        0x08001d2a:    d404        ..      BMI      0x8001d36 ; _printf_post_padding + 26
        0x08001d2c:    e005        ..      B        0x8001d3a ; _printf_post_padding + 30
        0x08001d2e:    4639        9F      MOV      r1,r7
        0x08001d30:    2020                MOVS     r0,#0x20
        0x08001d32:    47b0        .G      BLX      r6
        0x08001d34:    1c6d        m.      ADDS     r5,r5,#1
        0x08001d36:    1e64        d.      SUBS     r4,r4,#1
        0x08001d38:    d5f9        ..      BPL      0x8001d2e ; _printf_post_padding + 18
        0x08001d3a:    4628        (F      MOV      r0,r5
        0x08001d3c:    e8bd81f0    ....    POP      {r4-r8,pc}
    i._printf_pre_padding
    _printf_pre_padding
        0x08001d40:    e92d41f0    -..A    PUSH     {r4-r8,lr}
        0x08001d44:    4604        .F      MOV      r4,r0
        0x08001d46:    2500        .%      MOVS     r5,#0
        0x08001d48:    461e        .F      MOV      r6,r3
        0x08001d4a:    4690        .F      MOV      r8,r2
        0x08001d4c:    03c8        ..      LSLS     r0,r1,#15
        0x08001d4e:    d501        ..      BPL      0x8001d54 ; _printf_pre_padding + 20
        0x08001d50:    2730        0'      MOVS     r7,#0x30
        0x08001d52:    e000        ..      B        0x8001d56 ; _printf_pre_padding + 22
        0x08001d54:    2720         '      MOVS     r7,#0x20
        0x08001d56:    0488        ..      LSLS     r0,r1,#18
        0x08001d58:    d504        ..      BPL      0x8001d64 ; _printf_pre_padding + 36
        0x08001d5a:    e005        ..      B        0x8001d68 ; _printf_pre_padding + 40
        0x08001d5c:    4641        AF      MOV      r1,r8
        0x08001d5e:    4638        8F      MOV      r0,r7
        0x08001d60:    47b0        .G      BLX      r6
        0x08001d62:    1c6d        m.      ADDS     r5,r5,#1
        0x08001d64:    1e64        d.      SUBS     r4,r4,#1
        0x08001d66:    d5f9        ..      BPL      0x8001d5c ; _printf_pre_padding + 28
        0x08001d68:    4628        (F      MOV      r0,r5
        0x08001d6a:    e8bd81f0    ....    POP      {r4-r8,pc}
        0x08001d6e:    0000        ..      MOVS     r0,r0
    i.bsp_InitDWT
    bsp_InitDWT
        0x08001d70:    4806        .H      LDR      r0,[pc,#24] ; [0x8001d8c] = 0xe000edfc
        0x08001d72:    6801        .h      LDR      r1,[r0,#0]
        0x08001d74:    f0417180    A..q    ORR      r1,r1,#0x1000000
        0x08001d78:    6001        .`      STR      r1,[r0,#0]
        0x08001d7a:    4805        .H      LDR      r0,[pc,#20] ; [0x8001d90] = 0xe0001000
        0x08001d7c:    2100        .!      MOVS     r1,#0
        0x08001d7e:    6041        A`      STR      r1,[r0,#4]
        0x08001d80:    6801        .h      LDR      r1,[r0,#0]
        0x08001d82:    f0410101    A...    ORR      r1,r1,#1
        0x08001d86:    6001        .`      STR      r1,[r0,#0]
        0x08001d88:    4770        pG      BX       lr
    $d
        0x08001d8a:    0000        ..      DCW    0
        0x08001d8c:    e000edfc    ....    DCD    3758157308
        0x08001d90:    e0001000    ....    DCD    3758100480
    $t
    i.bsp_init
    bsp_init
        0x08001d94:    b510        ..      PUSH     {r4,lr}
        0x08001d96:    2101        .!      MOVS     r1,#1
        0x08001d98:    2002        .       MOVS     r0,#2
        0x08001d9a:    f7fefdbd    ....    BL       DBGMCU_Config ; 0x8000918
        0x08001d9e:    f44f7040    O.@p    MOV      r0,#0x300
        0x08001da2:    f7fff80b    ....    BL       NVIC_PriorityGroupConfig ; 0x8000dbc
        0x08001da6:    f7ffffe3    ....    BL       bsp_InitDWT ; 0x8001d70
        0x08001daa:    2310        .#      MOVS     r3,#0x10
        0x08001dac:    025a        Z.      LSLS     r2,r3,#9
        0x08001dae:    490a        .I      LDR      r1,[pc,#40] ; [0x8001dd8] = 0x40011000
        0x08001db0:    4618        .F      MOV      r0,r3
        0x08001db2:    f7feff3f    ..?.    BL       GPIO_Config ; 0x8000c34
        0x08001db6:    2301        .#      MOVS     r3,#1
        0x08001db8:    2203        ."      MOVS     r2,#3
        0x08001dba:    f44f31e1    O..1    MOV      r1,#0x1c200
        0x08001dbe:    4807        .H      LDR      r0,[pc,#28] ; [0x8001ddc] = 0x40013800
        0x08001dc0:    f7fffae6    ....    BL       USART_driverInit ; 0x8001390
        0x08001dc4:    a006        ..      ADR      r0,{pc}+0x1c ; 0x8001de0
        0x08001dc6:    f7fffd59    ..Y.    BL       __0printf$8 ; 0x800187c
        0x08001dca:    f7fefb1f    ....    BL       CAN1_Init ; 0x800040c
        0x08001dce:    e8bd4010    ...@    POP      {r4,lr}
        0x08001dd2:    4805        .H      LDR      r0,[pc,#20] ; [0x8001de8] = 0x20002cb4
        0x08001dd4:    f7febd20    .. .    B        CAN_RxMesInit ; 0x8000818
    $d
        0x08001dd8:    40011000    ...@    DCD    1073811456
        0x08001ddc:    40013800    .8.@    DCD    1073821696
        0x08001de0:    36545243    CRT6    DCD    911495747
        0x08001de4:    00000a0d    ....    DCD    2573
        0x08001de8:    20002cb4    .,.     DCD    536882356
    $t
    i.fputc
    fputc
        0x08001dec:    b570        p.      PUSH     {r4-r6,lr}
        0x08001dee:    4605        .F      MOV      r5,r0
        0x08001df0:    4806        .H      LDR      r0,[pc,#24] ; [0x8001e0c] = 0x40013800
        0x08001df2:    b2e9        ..      UXTB     r1,r5
        0x08001df4:    4604        .F      MOV      r4,r0
        0x08001df6:    f7fffac7    ....    BL       USART_SendData ; 0x8001388
        0x08001dfa:    2180        .!      MOVS     r1,#0x80
        0x08001dfc:    4620         F      MOV      r0,r4
        0x08001dfe:    f7fffa23    ..#.    BL       USART_GetFlagStatus ; 0x8001248
        0x08001e02:    2800        .(      CMP      r0,#0
        0x08001e04:    d0f9        ..      BEQ      0x8001dfa ; fputc + 14
        0x08001e06:    4628        (F      MOV      r0,r5
        0x08001e08:    bd70        p.      POP      {r4-r6,pc}
    $d
        0x08001e0a:    0000        ..      DCW    0
        0x08001e0c:    40013800    .8.@    DCD    1073821696
    $t
    i.isr_sem_send
    isr_sem_send
        0x08001e10:    b510        ..      PUSH     {r4,lr}
        0x08001e12:    2100        .!      MOVS     r1,#0
        0x08001e14:    f000fa1c    ....    BL       rt_psq_enq ; 0x8002250
        0x08001e18:    e8bd4010    ...@    POP      {r4,lr}
        0x08001e1c:    f000ba08    ....    B.W      rt_psh_req ; 0x8002230
    i.main
    main
        0x08001e20:    f7ffffb8    ....    BL       bsp_init ; 0x8001d94
        0x08001e24:    f7fef972    ..r.    BL       os_set_env ; 0x800010c
        0x08001e28:    4a03        .J      LDR      r2,[pc,#12] ; [0x8001e38] = 0x20000860
        0x08001e2a:    4904        .I      LDR      r1,[pc,#16] ; [0x8001e3c] = 0x8000a
        0x08001e2c:    4804        .H      LDR      r0,[pc,#16] ; [0x8001e40] = 0x8000355
        0x08001e2e:    f8dfc014    ....    LDR      r12,[pc,#20] ; [0x8001e44] = 0x800240d
        0x08001e32:    df00        ..      SVC      #0x0 ; formerly SWI
        0x08001e34:    e7fe        ..      B        0x8001e34 ; main + 20
    $d
        0x08001e36:    0000        ..      DCW    0
        0x08001e38:    20000860    `..     DCD    536873056
        0x08001e3c:    0008000a    ....    DCD    524298
        0x08001e40:    08000355    U...    DCD    134218581
        0x08001e44:    0800240d    .$..    DCD    134226957
    $t
    i.os_error
    os_error
        0x08001e48:    e7fe        ..      B        os_error ; 0x8001e48
    i.os_idle_demon
    os_idle_demon
        0x08001e4a:    e7fe        ..      B        os_idle_demon ; 0x8001e4a
    i.os_tick_init
    os_tick_init
        0x08001e4c:    4807        .H      LDR      r0,[pc,#28] ; [0x8001e6c] = 0x8002738
        0x08001e4e:    6801        .h      LDR      r1,[r0,#0]
        0x08001e50:    f04f20e0    O..     MOV      r0,#0xe000e000
        0x08001e54:    6141        Aa      STR      r1,[r0,#0x14]
        0x08001e56:    2100        .!      MOVS     r1,#0
        0x08001e58:    6181        .a      STR      r1,[r0,#0x18]
        0x08001e5a:    2107        .!      MOVS     r1,#7
        0x08001e5c:    6101        .a      STR      r1,[r0,#0x10]
        0x08001e5e:    4804        .H      LDR      r0,[pc,#16] ; [0x8001e70] = 0xe000ed20
        0x08001e60:    6801        .h      LDR      r1,[r0,#0]
        0x08001e62:    f041417f    A..A    ORR      r1,r1,#0xff000000
        0x08001e66:    6001        .`      STR      r1,[r0,#0]
        0x08001e68:    1740        @.      ASRS     r0,r0,#29
        0x08001e6a:    4770        pG      BX       lr
    $d
        0x08001e6c:    08002738    8'..    DCD    134227768
        0x08001e70:    e000ed20     ...    DCD    3758157088
    $t
    i.os_tick_irqack
    os_tick_irqack
        0x08001e74:    4770        pG      BX       lr
    i.os_tmr_call
    os_tmr_call
        0x08001e76:    4770        pG      BX       lr
    i.rt_alloc_box
    rt_alloc_box
        0x08001e78:    e8501f00    P...    LDREX    r1,[r0]
        0x08001e7c:    b131        1.      CBZ      r1,0x8001e8c ; rt_alloc_box + 20
        0x08001e7e:    680b        .h      LDR      r3,[r1,#0]
        0x08001e80:    e8403200    @..2    STREX    r2,r3,[r0]
        0x08001e84:    2a00        .*      CMP      r2,#0
        0x08001e86:    d1f7        ..      BNE      rt_alloc_box ; 0x8001e78
        0x08001e88:    4608        .F      MOV      r0,r1
        0x08001e8a:    4770        pG      BX       lr
        0x08001e8c:    f3bf8f2f    ../.    CLREX    
        0x08001e90:    e7fa        ..      B        0x8001e88 ; rt_alloc_box + 16
        0x08001e92:    0000        ..      MOVS     r0,r0
    i.rt_block
    rt_block
        0x08001e94:    2800        .(      CMP      r0,#0
        0x08001e96:    bf08        ..      IT       EQ
        0x08001e98:    4770        pG      BXEQ     lr
        0x08001e9a:    b570        p.      PUSH     {r4-r6,lr}
        0x08001e9c:    460d        .F      MOV      r5,r1
        0x08001e9e:    f64f71ff    O..q    MOV      r1,#0xffff
        0x08001ea2:    4c08        .L      LDR      r4,[pc,#32] ; [0x8001ec4] = 0x20000044
        0x08001ea4:    4288        .B      CMP      r0,r1
        0x08001ea6:    d204        ..      BCS      0x8001eb2 ; rt_block + 30
        0x08001ea8:    6822        "h      LDR      r2,[r4,#0]
        0x08001eaa:    4601        .F      MOV      r1,r0
        0x08001eac:    4610        .F      MOV      r0,r2
        0x08001eae:    f000f9fd    ....    BL       rt_put_dly ; 0x80022ac
        0x08001eb2:    6820         h      LDR      r0,[r4,#0]
        0x08001eb4:    7045        Ep      STRB     r5,[r0,#1]
        0x08001eb6:    4804        .H      LDR      r0,[pc,#16] ; [0x8001ec8] = 0x20002cc8
        0x08001eb8:    f000f8d1    ....    BL       rt_get_first ; 0x800205e
        0x08001ebc:    2102        .!      MOVS     r1,#2
        0x08001ebe:    6060        ``      STR      r0,[r4,#4]
        0x08001ec0:    7041        Ap      STRB     r1,[r0,#1]
        0x08001ec2:    bd70        p.      POP      {r4-r6,pc}
    $d
        0x08001ec4:    20000044    D..     DCD    536870980
        0x08001ec8:    20002cc8    .,.     DCD    536882376
    $t
    i.rt_chk_robin
    rt_chk_robin
        0x08001ecc:    4770        pG      BX       lr
        0x08001ece:    0000        ..      MOVS     r0,r0
    i.rt_dec_dly
    rt_dec_dly
        0x08001ed0:    4b2d        -K      LDR      r3,[pc,#180] ; [0x8001f88] = 0x20002ce0
        0x08001ed2:    68d8        .h      LDR      r0,[r3,#0xc]
        0x08001ed4:    2800        .(      CMP      r0,#0
        0x08001ed6:    bf08        ..      IT       EQ
        0x08001ed8:    4770        pG      BXEQ     lr
        0x08001eda:    e92d01f0    -...    PUSH     {r4-r8}
        0x08001ede:    8a98        ..      LDRH     r0,[r3,#0x14]
        0x08001ee0:    2500        .%      MOVS     r5,#0
        0x08001ee2:    1e40        @.      SUBS     r0,r0,#1
        0x08001ee4:    f8df80a4    ....    LDR      r8,[pc,#164] ; [0x8001f8c] = 0x2000004c
        0x08001ee8:    8298        ..      STRH     r0,[r3,#0x14]
        0x08001eea:    2601        .&      MOVS     r6,#1
        0x08001eec:    8a98        ..      LDRH     r0,[r3,#0x14]
        0x08001eee:    2800        .(      CMP      r0,#0
        0x08001ef0:    bf1c        ..      ITT      NE
        0x08001ef2:    e8bd01f0    ....    POPNE    {r4-r8}
        0x08001ef6:    4770        pG      BXNE     lr
        0x08001ef8:    68d9        .h      LDR      r1,[r3,#0xc]
        0x08001efa:    2900        .)      CMP      r1,#0
        0x08001efc:    bf04        ..      ITT      EQ
        0x08001efe:    e8bd01f0    ....    POPEQ    {r4-r8}
        0x08001f02:    4770        pG      BXEQ     lr
        0x08001f04:    6888        .h      LDR      r0,[r1,#8]
        0x08001f06:    b138        8.      CBZ      r0,0x8001f18 ; rt_dec_dly + 72
        0x08001f08:    684a        Jh      LDR      r2,[r1,#4]
        0x08001f0a:    6042        B`      STR      r2,[r0,#4]
        0x08001f0c:    6848        Hh      LDR      r0,[r1,#4]
        0x08001f0e:    b110        ..      CBZ      r0,0x8001f16 ; rt_dec_dly + 70
        0x08001f10:    688a        .h      LDR      r2,[r1,#8]
        0x08001f12:    6082        .`      STR      r2,[r0,#8]
        0x08001f14:    604d        M`      STR      r5,[r1,#4]
        0x08001f16:    608d        .`      STR      r5,[r1,#8]
        0x08001f18:    f8dfc074    ..t.    LDR      r12,[pc,#116] ; [0x8001f90] = 0x20002cc8
        0x08001f1c:    2700        .'      MOVS     r7,#0
        0x08001f1e:    f89c0000    ....    LDRB     r0,[r12,#0]
        0x08001f22:    2802        .(      CMP      r0,#2
        0x08001f24:    bf1a        ..      ITTE     NE
        0x08001f26:    2801        .(      CMPNE    r0,#1
        0x08001f28:    2803        .(      CMPNE    r0,#3
        0x08001f2a:    2701        .'      MOVEQ    r7,#1
        0x08001f2c:    f8914002    ...@    LDRB.W   r4,[r1,#2]
        0x08001f30:    f8dc0004    ....    LDR      r0,[r12,#4]
        0x08001f34:    b120         .      CBZ      r0,0x8001f40 ; rt_dec_dly + 112
        0x08001f36:    7882        .x      LDRB     r2,[r0,#2]
        0x08001f38:    42a2        .B      CMP      r2,r4
        0x08001f3a:    bf28        (.      IT       CS
        0x08001f3c:    4684        .F      MOVCS    r12,r0
        0x08001f3e:    d2f7        ..      BCS      0x8001f30 ; rt_dec_dly + 96
        0x08001f40:    6048        H`      STR      r0,[r1,#4]
        0x08001f42:    f8cc1004    ....    STR      r1,[r12,#4]
        0x08001f46:    2f00        ./      CMP      r7,#0
        0x08001f48:    bf04        ..      ITT      EQ
        0x08001f4a:    4608        .F      MOVEQ    r0,r1
        0x08001f4c:    608d        .`      STREQ    r5,[r1,#8]
        0x08001f4e:    d005        ..      BEQ      0x8001f5c ; rt_dec_dly + 140
        0x08001f50:    2800        .(      CMP      r0,#0
        0x08001f52:    bf1c        ..      ITT      NE
        0x08001f54:    460a        .F      MOVNE    r2,r1
        0x08001f56:    6081        .`      STRNE    r1,[r0,#8]
        0x08001f58:    f8c1c008    ....    STR      r12,[r1,#8]
        0x08001f5c:    8a88        ..      LDRH     r0,[r1,#0x14]
        0x08001f5e:    8298        ..      STRH     r0,[r3,#0x14]
        0x08001f60:    7848        Hx      LDRB     r0,[r1,#1]
        0x08001f62:    2804        .(      CMP      r0,#4
        0x08001f64:    d104        ..      BNE      0x8001f70 ; rt_dec_dly + 160
        0x08001f66:    8ac8        ..      LDRH     r0,[r1,#0x16]
        0x08001f68:    f8b82000    ...     LDRH     r2,[r8,#0]
        0x08001f6c:    4410        .D      ADD      r0,r0,r2
        0x08001f6e:    8288        ..      STRH     r0,[r1,#0x14]
        0x08001f70:    704e        Np      STRB     r6,[r1,#1]
        0x08001f72:    f8816025    ..%`    STRB     r6,[r1,#0x25]
        0x08001f76:    68c8        .h      LDR      r0,[r1,#0xc]
        0x08001f78:    60d8        .`      STR      r0,[r3,#0xc]
        0x08001f7a:    68c8        .h      LDR      r0,[r1,#0xc]
        0x08001f7c:    2800        .(      CMP      r0,#0
        0x08001f7e:    bf1c        ..      ITT      NE
        0x08001f80:    6103        .a      STRNE    r3,[r0,#0x10]
        0x08001f82:    60cd        .`      STRNE    r5,[r1,#0xc]
        0x08001f84:    610d        .a      STR      r5,[r1,#0x10]
        0x08001f86:    e7b1        ..      B        0x8001eec ; rt_dec_dly + 28
    $d
        0x08001f88:    20002ce0    .,.     DCD    536882400
        0x08001f8c:    2000004c    L..     DCD    536870988
        0x08001f90:    20002cc8    .,.     DCD    536882376
    $t
    i.rt_dispatch
    rt_dispatch
        0x08001f94:    e92d41f0    -..A    PUSH     {r4-r8,lr}
        0x08001f98:    4e10        .N      LDR      r6,[pc,#64] ; [0x8001fdc] = 0x20000044
        0x08001f9a:    0004        ..      MOVS     r4,r0
        0x08001f9c:    f04f0502    O...    MOV      r5,#2
        0x08001fa0:    d00d        ..      BEQ      0x8001fbe ; rt_dispatch + 42
        0x08001fa2:    6830        0h      LDR      r0,[r6,#0]
        0x08001fa4:    78a1        .x      LDRB     r1,[r4,#2]
        0x08001fa6:    2701        .'      MOVS     r7,#1
        0x08001fa8:    7882        .x      LDRB     r2,[r0,#2]
        0x08001faa:    4291        .B      CMP      r1,r2
        0x08001fac:    d90e        ..      BLS      0x8001fcc ; rt_dispatch + 56
        0x08001fae:    f000f9d3    ....    BL       rt_put_rdy_first ; 0x8002358
        0x08001fb2:    6830        0h      LDR      r0,[r6,#0]
        0x08001fb4:    7047        Gp      STRB     r7,[r0,#1]
        0x08001fb6:    6074        t`      STR      r4,[r6,#4]
        0x08001fb8:    7065        ep      STRB     r5,[r4,#1]
        0x08001fba:    e8bd81f0    ....    POP      {r4-r8,pc}
        0x08001fbe:    4808        .H      LDR      r0,[pc,#32] ; [0x8001fe0] = 0x20002cc8
        0x08001fc0:    f000f84d    ..M.    BL       rt_get_first ; 0x800205e
        0x08001fc4:    6070        p`      STR      r0,[r6,#4]
        0x08001fc6:    7045        Ep      STRB     r5,[r0,#1]
        0x08001fc8:    e8bd81f0    ....    POP      {r4-r8,pc}
        0x08001fcc:    7067        gp      STRB     r7,[r4,#1]
        0x08001fce:    4621        !F      MOV      r1,r4
        0x08001fd0:    e8bd41f0    ...A    POP      {r4-r8,lr}
        0x08001fd4:    4802        .H      LDR      r0,[pc,#8] ; [0x8001fe0] = 0x20002cc8
        0x08001fd6:    f000b99d    ....    B.W      rt_put_prio ; 0x8002314
    $d
        0x08001fda:    0000        ..      DCW    0
        0x08001fdc:    20000044    D..     DCD    536870980
        0x08001fe0:    20002cc8    .,.     DCD    536882376
    $t
    i.rt_dly_wait
    rt_dly_wait
        0x08001fe4:    2103        .!      MOVS     r1,#3
        0x08001fe6:    f7ffbf55    ..U.    B.W      rt_block ; 0x8001e94
        0x08001fea:    0000        ..      MOVS     r0,r0
    i.rt_evt_psh
    rt_evt_psh
        0x08001fec:    b510        ..      PUSH     {r4,lr}
        0x08001fee:    4604        .F      MOV      r4,r0
        0x08001ff0:    8b00        ..      LDRH     r0,[r0,#0x18]
        0x08001ff2:    4308        .C      ORRS     r0,r0,r1
        0x08001ff4:    8320         .      STRH     r0,[r4,#0x18]
        0x08001ff6:    7862        bx      LDRB     r2,[r4,#1]
        0x08001ff8:    8b61        a.      LDRH     r1,[r4,#0x1a]
        0x08001ffa:    2a06        .*      CMP      r2,#6
        0x08001ffc:    d018        ..      BEQ      0x8002030 ; rt_evt_psh + 68
        0x08001ffe:    2a05        .*      CMP      r2,#5
        0x08002000:    bf18        ..      IT       NE
        0x08002002:    bd10        ..      POPNE    {r4,pc}
        0x08002004:    4208        .B      TST      r0,r1
        0x08002006:    bf08        ..      IT       EQ
        0x08002008:    bd10        ..      POPEQ    {r4,pc}
        0x0800200a:    ea010200    ....    AND      r2,r1,r0
        0x0800200e:    8362        b.      STRH     r2,[r4,#0x1a]
        0x08002010:    4388        .C      BICS     r0,r0,r1
        0x08002012:    8320         .      STRH     r0,[r4,#0x18]
        0x08002014:    4620         F      MOV      r0,r4
        0x08002016:    f000f9a9    ....    BL       rt_rmv_dly ; 0x800236c
        0x0800201a:    2001        .       MOVS     r0,#1
        0x0800201c:    7060        `p      STRB     r0,[r4,#1]
        0x0800201e:    2002        .       MOVS     r0,#2
        0x08002020:    f8840025    ..%.    STRB     r0,[r4,#0x25]
        0x08002024:    4621        !F      MOV      r1,r4
        0x08002026:    e8bd4010    ...@    POP      {r4,lr}
        0x0800202a:    4803        .H      LDR      r0,[pc,#12] ; [0x8002038] = 0x20002cc8
        0x0800202c:    f000b972    ..r.    B.W      rt_put_prio ; 0x8002314
        0x08002030:    ea310200    1...    BICS     r2,r1,r0
        0x08002034:    d0ec        ..      BEQ      0x8002010 ; rt_evt_psh + 36
        0x08002036:    bd10        ..      POP      {r4,pc}
    $d
        0x08002038:    20002cc8    .,.     DCD    536882376
    $t
    i.rt_free_box
    rt_free_box
        0x0800203c:    4281        .B      CMP      r1,r0
        0x0800203e:    bf24        $.      ITT      CS
        0x08002040:    6842        Bh      LDRCS    r2,[r0,#4]
        0x08002042:    428a        .B      CMPCS    r2,r1
        0x08002044:    bf9c        ..      ITT      LS
        0x08002046:    2001        .       MOVLS    r0,#1
        0x08002048:    4770        pG      BXLS     lr
        0x0800204a:    bf00        ..      NOP      
        0x0800204c:    e8502f00    P../    LDREX    r2,[r0]
        0x08002050:    600a        .`      STR      r2,[r1,#0]
        0x08002052:    e8401200    @...    STREX    r2,r1,[r0]
        0x08002056:    2a00        .*      CMP      r2,#0
        0x08002058:    d1f8        ..      BNE      0x800204c ; rt_free_box + 16
        0x0800205a:    2000        .       MOVS     r0,#0
        0x0800205c:    4770        pG      BX       lr
    i.rt_get_first
    rt_get_first
        0x0800205e:    4601        .F      MOV      r1,r0
        0x08002060:    6840        @h      LDR      r0,[r0,#4]
        0x08002062:    6842        Bh      LDR      r2,[r0,#4]
        0x08002064:    604a        J`      STR      r2,[r1,#4]
        0x08002066:    780b        .x      LDRB     r3,[r1,#0]
        0x08002068:    2200        ."      MOVS     r2,#0
        0x0800206a:    2b02        .+      CMP      r3,#2
        0x0800206c:    bf18        ..      IT       NE
        0x0800206e:    2b01        .+      CMPNE    r3,#1
        0x08002070:    d003        ..      BEQ      0x800207a ; rt_get_first + 28
        0x08002072:    2b03        .+      CMP      r3,#3
        0x08002074:    bf1c        ..      ITT      NE
        0x08002076:    6042        B`      STRNE    r2,[r0,#4]
        0x08002078:    4770        pG      BXNE     lr
        0x0800207a:    6843        Ch      LDR      r3,[r0,#4]
        0x0800207c:    2b00        .+      CMP      r3,#0
        0x0800207e:    bf1c        ..      ITT      NE
        0x08002080:    6099        .`      STRNE    r1,[r3,#8]
        0x08002082:    6042        B`      STRNE    r2,[r0,#4]
        0x08002084:    6082        .`      STR      r2,[r0,#8]
        0x08002086:    4770        pG      BX       lr
    i.rt_init_robin
    rt_init_robin
        0x08002088:    4770        pG      BX       lr
        0x0800208a:    0000        ..      MOVS     r0,r0
    i.rt_init_stack
    rt_init_stack
        0x0800208c:    8d02        ..      LDRH     r2,[r0,#0x28]
        0x0800208e:    0892        ..      LSRS     r2,r2,#2
        0x08002090:    d103        ..      BNE      0x800209a ; rt_init_stack + 14
        0x08002092:    4a13        .J      LDR      r2,[pc,#76] ; [0x80020e0] = 0x8002734
        0x08002094:    8812        ..      LDRH     r2,[r2,#0]
        0x08002096:    f3c2028d    ....    UBFX     r2,r2,#2,#14
        0x0800209a:    6b03        .k      LDR      r3,[r0,#0x30]
        0x0800209c:    eb030282    ....    ADD      r2,r3,r2,LSL #2
        0x080020a0:    f0120f04    ....    TST      r2,#4
        0x080020a4:    bf18        ..      IT       NE
        0x080020a6:    1f12        ..      SUBNE    r2,r2,#4
        0x080020a8:    f04f7380    O..s    MOV      r3,#0x1000000
        0x080020ac:    e9421302    B...    STRD     r1,r3,[r2,#-8]
        0x080020b0:    2300        .#      MOVS     r3,#0
        0x080020b2:    f8423d40    B.@=    STR      r3,[r2,#-0x40]!
        0x080020b6:    6053        S`      STR      r3,[r2,#4]
        0x080020b8:    6093        .`      STR      r3,[r2,#8]
        0x080020ba:    60d3        .`      STR      r3,[r2,#0xc]
        0x080020bc:    6113        .a      STR      r3,[r2,#0x10]
        0x080020be:    6153        Sa      STR      r3,[r2,#0x14]
        0x080020c0:    6193        .a      STR      r3,[r2,#0x18]
        0x080020c2:    61d3        .a      STR      r3,[r2,#0x1c]
        0x080020c4:    6213        .b      STR      r3,[r2,#0x20]
        0x080020c6:    6253        Sb      STR      r3,[r2,#0x24]
        0x080020c8:    6293        .b      STR      r3,[r2,#0x28]
        0x080020ca:    62d3        .b      STR      r3,[r2,#0x2c]
        0x080020cc:    6313        .c      STR      r3,[r2,#0x30]
        0x080020ce:    6353        Sc      STR      r3,[r2,#0x34]
        0x080020d0:    69c3        .i      LDR      r3,[r0,#0x1c]
        0x080020d2:    6213        .b      STR      r3,[r2,#0x20]
        0x080020d4:    62c2        .b      STR      r2,[r0,#0x2c]
        0x080020d6:    6341        Ac      STR      r1,[r0,#0x34]
        0x080020d8:    6b00        .k      LDR      r0,[r0,#0x30]
        0x080020da:    4902        .I      LDR      r1,[pc,#8] ; [0x80020e4] = 0xe25a2ea5
        0x080020dc:    6001        .`      STR      r1,[r0,#0]
        0x080020de:    4770        pG      BX       lr
    $d
        0x080020e0:    08002734    4'..    DCD    134227764
        0x080020e4:    e25a2ea5    ..Z.    DCD    3797560997
    $t
    i.rt_mbx_psh
    rt_mbx_psh
        0x080020e8:    e92d41f0    -..A    PUSH     {r4-r8,lr}
        0x080020ec:    4604        .F      MOV      r4,r0
        0x080020ee:    6840        @h      LDR      r0,[r0,#4]
        0x080020f0:    4688        .F      MOV      r8,r1
        0x080020f2:    2700        .'      MOVS     r7,#0
        0x080020f4:    f104050c    ....    ADD      r5,r4,#0xc
        0x080020f8:    b128        (.      CBZ      r0,0x8002106 ; rt_mbx_psh + 30
        0x080020fa:    7860        `x      LDRB     r0,[r4,#1]
        0x080020fc:    2802        .(      CMP      r0,#2
        0x080020fe:    d01d        ..      BEQ      0x800213c ; rt_mbx_psh + 84
        0x08002100:    89a0        ..      LDRH     r0,[r4,#0xc]
        0x08002102:    2800        .(      CMP      r0,#0
        0x08002104:    d037        7.      BEQ      0x8002176 ; rt_mbx_psh + 142
        0x08002106:    89a0        ..      LDRH     r0,[r4,#0xc]
        0x08002108:    89e1        ..      LDRH     r1,[r4,#0xe]
        0x0800210a:    4288        .B      CMP      r0,r1
        0x0800210c:    d248        H.      BCS      0x80021a0 ; rt_mbx_psh + 184
        0x0800210e:    8920         .      LDRH     r0,[r4,#8]
        0x08002110:    eb040080    ....    ADD      r0,r4,r0,LSL #2
        0x08002114:    f8c08010    ....    STR      r8,[r0,#0x10]
        0x08002118:    e8d50f5f    .._.    LDREXH   r0,[r5]
        0x0800211c:    1c40        @.      ADDS     r0,r0,#1
        0x0800211e:    b281        ..      UXTH     r1,r0
        0x08002120:    e8c51f50    ..P.    STREXH   r0,r1,[r5]
        0x08002124:    2800        .(      CMP      r0,#0
        0x08002126:    d1f7        ..      BNE      0x8002118 ; rt_mbx_psh + 48
        0x08002128:    8920         .      LDRH     r0,[r4,#8]
        0x0800212a:    1c40        @.      ADDS     r0,r0,#1
        0x0800212c:    b280        ..      UXTH     r0,r0
        0x0800212e:    8120         .      STRH     r0,[r4,#8]
        0x08002130:    89e1        ..      LDRH     r1,[r4,#0xe]
        0x08002132:    4288        .B      CMP      r0,r1
        0x08002134:    bf08        ..      IT       EQ
        0x08002136:    8127        '.      STRHEQ   r7,[r4,#8]
        0x08002138:    e8bd81f0    ....    POP      {r4-r8,pc}
        0x0800213c:    4620         F      MOV      r0,r4
        0x0800213e:    7067        gp      STRB     r7,[r4,#1]
        0x08002140:    f7ffff8d    ....    BL       rt_get_first ; 0x800205e
        0x08002144:    f8807025    ..%p    STRB     r7,[r0,#0x25]
        0x08002148:    8921        !.      LDRH     r1,[r4,#8]
        0x0800214a:    4606        .F      MOV      r6,r0
        0x0800214c:    eb040181    ....    ADD      r1,r4,r1,LSL #2
        0x08002150:    69c0        .i      LDR      r0,[r0,#0x1c]
        0x08002152:    6108        .a      STR      r0,[r1,#0x10]
        0x08002154:    e8d50f5f    .._.    LDREXH   r0,[r5]
        0x08002158:    1c40        @.      ADDS     r0,r0,#1
        0x0800215a:    b281        ..      UXTH     r1,r0
        0x0800215c:    e8c51f50    ..P.    STREXH   r0,r1,[r5]
        0x08002160:    2800        .(      CMP      r0,#0
        0x08002162:    d1f7        ..      BNE      0x8002154 ; rt_mbx_psh + 108
        0x08002164:    8920         .      LDRH     r0,[r4,#8]
        0x08002166:    1c40        @.      ADDS     r0,r0,#1
        0x08002168:    b280        ..      UXTH     r0,r0
        0x0800216a:    8120         .      STRH     r0,[r4,#8]
        0x0800216c:    89e1        ..      LDRH     r1,[r4,#0xe]
        0x0800216e:    4288        .B      CMP      r0,r1
        0x08002170:    bf08        ..      IT       EQ
        0x08002172:    8127        '.      STRHEQ   r7,[r4,#8]
        0x08002174:    e009        ..      B        0x800218a ; rt_mbx_psh + 162
        0x08002176:    4620         F      MOV      r0,r4
        0x08002178:    f7ffff71    ..q.    BL       rt_get_first ; 0x800205e
        0x0800217c:    4606        .F      MOV      r6,r0
        0x0800217e:    69c0        .i      LDR      r0,[r0,#0x1c]
        0x08002180:    2104        .!      MOVS     r1,#4
        0x08002182:    f8c08000    ....    STR      r8,[r0,#0]
        0x08002186:    f8861025    ..%.    STRB     r1,[r6,#0x25]
        0x0800218a:    2001        .       MOVS     r0,#1
        0x0800218c:    7070        pp      STRB     r0,[r6,#1]
        0x0800218e:    4630        0F      MOV      r0,r6
        0x08002190:    f000f8ec    ....    BL       rt_rmv_dly ; 0x800236c
        0x08002194:    4631        1F      MOV      r1,r6
        0x08002196:    e8bd41f0    ...A    POP      {r4-r8,lr}
        0x0800219a:    4804        .H      LDR      r0,[pc,#16] ; [0x80021ac] = 0x20002cc8
        0x0800219c:    f000b8ba    ....    B.W      rt_put_prio ; 0x8002314
        0x080021a0:    e8bd41f0    ...A    POP      {r4-r8,lr}
        0x080021a4:    2003        .       MOVS     r0,#3
        0x080021a6:    f7ffbe4f    ..O.    B.W      os_error ; 0x8001e48
    $d
        0x080021aa:    0000        ..      DCW    0
        0x080021ac:    20002cc8    .,.     DCD    536882376
    $t
    i.rt_pop_req
    rt_pop_req
        0x080021b0:    b570        p.      PUSH     {r4-r6,lr}
        0x080021b2:    481c        .H      LDR      r0,[pc,#112] ; [0x8002224] = 0x20000044
        0x080021b4:    2101        .!      MOVS     r1,#1
        0x080021b6:    6802        .h      LDR      r2,[r0,#0]
        0x080021b8:    7051        Qp      STRB     r1,[r2,#1]
        0x080021ba:    6800        .h      LDR      r0,[r0,#0]
        0x080021bc:    f000f8cc    ....    BL       rt_put_rdy_first ; 0x8002358
        0x080021c0:    4d19        .M      LDR      r5,[pc,#100] ; [0x8002228] = 0x20002a40
        0x080021c2:    78a8        .x      LDRB     r0,[r5,#2]
        0x080021c4:    786e        nx      LDRB     r6,[r5,#1]
        0x080021c6:    2800        .(      CMP      r0,#0
        0x080021c8:    bf18        ..      IT       NE
        0x080021ca:    1cac        ..      ADDNE    r4,r5,#2
        0x080021cc:    d019        ..      BEQ      0x8002202 ; rt_pop_req + 82
        0x080021ce:    bf00        ..      NOP      
        0x080021d0:    eb0501c6    ....    ADD      r1,r5,r6,LSL #3
        0x080021d4:    6848        Hh      LDR      r0,[r1,#4]
        0x080021d6:    7802        .x      LDRB     r2,[r0,#0]
        0x080021d8:    b1da        ..      CBZ      r2,0x8002212 ; rt_pop_req + 98
        0x080021da:    2a01        .*      CMP      r2,#1
        0x080021dc:    d01e        ..      BEQ      0x800221c ; rt_pop_req + 108
        0x080021de:    f000f8e1    ....    BL       rt_sem_psh ; 0x80023a4
        0x080021e2:    78e8        .x      LDRB     r0,[r5,#3]
        0x080021e4:    1c76        v.      ADDS     r6,r6,#1
        0x080021e6:    4286        .B      CMP      r6,r0
        0x080021e8:    bf08        ..      IT       EQ
        0x080021ea:    2600        .&      MOVEQ    r6,#0
        0x080021ec:    e8d40f4f    ..O.    LDREXB   r0,[r4]
        0x080021f0:    1e40        @.      SUBS     r0,r0,#1
        0x080021f2:    b2c1        ..      UXTB     r1,r0
        0x080021f4:    e8c41f40    ..@.    STREXB   r0,r1,[r4]
        0x080021f8:    2800        .(      CMP      r0,#0
        0x080021fa:    d1f7        ..      BNE      0x80021ec ; rt_pop_req + 60
        0x080021fc:    78a8        .x      LDRB     r0,[r5,#2]
        0x080021fe:    2800        .(      CMP      r0,#0
        0x08002200:    d1e6        ..      BNE      0x80021d0 ; rt_pop_req + 32
        0x08002202:    706e        np      STRB     r6,[r5,#1]
        0x08002204:    4809        .H      LDR      r0,[pc,#36] ; [0x800222c] = 0x20002cc8
        0x08002206:    f7ffff2a    ..*.    BL       rt_get_first ; 0x800205e
        0x0800220a:    e8bd4070    ..p@    POP      {r4-r6,lr}
        0x0800220e:    f000b8f5    ....    B.W      rt_switch_req ; 0x80023fc
        0x08002212:    8909        ..      LDRH     r1,[r1,#8]
        0x08002214:    b289        ..      UXTH     r1,r1
        0x08002216:    f7fffee9    ....    BL       rt_evt_psh ; 0x8001fec
        0x0800221a:    e7e2        ..      B        0x80021e2 ; rt_pop_req + 50
        0x0800221c:    6889        .h      LDR      r1,[r1,#8]
        0x0800221e:    f7ffff63    ..c.    BL       rt_mbx_psh ; 0x80020e8
        0x08002222:    e7de        ..      B        0x80021e2 ; rt_pop_req + 50
    $d
        0x08002224:    20000044    D..     DCD    536870980
        0x08002228:    20002a40    @*.     DCD    536881728
        0x0800222c:    20002cc8    .,.     DCD    536882376
    $t
    i.rt_psh_req
    rt_psh_req
        0x08002230:    4805        .H      LDR      r0,[pc,#20] ; [0x8002248] = 0x2000003c
        0x08002232:    7801        .x      LDRB     r1,[r0,#0]
        0x08002234:    2900        .)      CMP      r1,#0
        0x08002236:    bf1e        ..      ITTT     NE
        0x08002238:    2101        .!      MOVNE    r1,#1
        0x0800223a:    7041        Ap      STRBNE   r1,[r0,#1]
        0x0800223c:    4770        pG      BXNE     lr
        0x0800223e:    f04f5080    O..P    MOV      r0,#0x10000000
        0x08002242:    4902        .I      LDR      r1,[pc,#8] ; [0x800224c] = 0xe000ed04
        0x08002244:    6008        .`      STR      r0,[r1,#0]
        0x08002246:    4770        pG      BX       lr
    $d
        0x08002248:    2000003c    <..     DCD    536870972
        0x0800224c:    e000ed04    ....    DCD    3758157060
    $t
    i.rt_psq_enq
    rt_psq_enq
        0x08002250:    b4f0        ..      PUSH     {r4-r7}
        0x08002252:    4d15        .M      LDR      r5,[pc,#84] ; [0x80022a8] = 0x20002a40
        0x08002254:    1cab        ..      ADDS     r3,r5,#2
        0x08002256:    78ec        .x      LDRB     r4,[r5,#3]
        0x08002258:    ea4f0c05    O...    MOV.W    r12,r5
        0x0800225c:    e8d32f4f    ..O/    LDREXB   r2,[r3]
        0x08002260:    42a2        .B      CMP      r2,r4
        0x08002262:    d10e        ..      BNE      0x8002282 ; rt_psq_enq + 50
        0x08002264:    f3bf8f2f    ../.    CLREX    
        0x08002268:    78eb        .x      LDRB     r3,[r5,#3]
        0x0800226a:    4293        .B      CMP      r3,r2
        0x0800226c:    bf81        ..      ITTTT    HI
        0x0800226e:    eb0502c2    ....    ADDHI    r2,r5,r2,LSL #3
        0x08002272:    e9c20101    ....    STRDHI   r0,r1,[r2,#4]
        0x08002276:    bcf0        ..      POPHI    {r4-r7}
        0x08002278:    4770        pG      BXHI     lr
        0x0800227a:    2002        .       MOVS     r0,#2
        0x0800227c:    bcf0        ..      POP      {r4-r7}
        0x0800227e:    f7ffbde3    ....    B.W      os_error ; 0x8001e48
        0x08002282:    1c52        R.      ADDS     r2,r2,#1
        0x08002284:    b2d6        ..      UXTB     r6,r2
        0x08002286:    e8c36f42    ..Bo    STREXB   r2,r6,[r3]
        0x0800228a:    2a00        .*      CMP      r2,#0
        0x0800228c:    d1e6        ..      BNE      0x800225c ; rt_psq_enq + 12
        0x0800228e:    bf00        ..      NOP      
        0x08002290:    e8dc2f4f    ..O/    LDREXB   r2,[r12]
        0x08002294:    1c53        S.      ADDS     r3,r2,#1
        0x08002296:    42a3        .B      CMP      r3,r4
        0x08002298:    bf08        ..      IT       EQ
        0x0800229a:    2300        .#      MOVEQ    r3,#0
        0x0800229c:    b2de        ..      UXTB     r6,r3
        0x0800229e:    e8cc6f43    ..Co    STREXB   r3,r6,[r12]
        0x080022a2:    2b00        .+      CMP      r3,#0
        0x080022a4:    d1f4        ..      BNE      0x8002290 ; rt_psq_enq + 64
        0x080022a6:    e7df        ..      B        0x8002268 ; rt_psq_enq + 24
    $d
        0x080022a8:    20002a40    @*.     DCD    536881728
    $t
    i.rt_put_dly
    rt_put_dly
        0x080022ac:    4a18        .J      LDR      r2,[pc,#96] ; [0x8002310] = 0x20002ce0
        0x080022ae:    68d3        .h      LDR      r3,[r2,#0xc]
        0x080022b0:    b313        ..      CBZ      r3,0x80022f8 ; rt_put_dly + 76
        0x080022b2:    4613        .F      MOV      r3,r2
        0x080022b4:    8a9b        ..      LDRH     r3,[r3,#0x14]
        0x080022b6:    428b        .B      CMP      r3,r1
        0x080022b8:    d20b        ..      BCS      0x80022d2 ; rt_put_dly + 38
        0x080022ba:    e004        ..      B        0x80022c6 ; rt_put_dly + 26
        0x080022bc:    f8d2c00c    ....    LDR      r12,[r2,#0xc]
        0x080022c0:    f1bc0f00    ....    CMP      r12,#0
        0x080022c4:    d018        ..      BEQ      0x80022f8 ; rt_put_dly + 76
        0x080022c6:    68d2        .h      LDR      r2,[r2,#0xc]
        0x080022c8:    f8b2c014    ....    LDRH     r12,[r2,#0x14]
        0x080022cc:    4463        cD      ADD      r3,r3,r12
        0x080022ce:    428b        .B      CMP      r3,r1
        0x080022d0:    d3f4        ..      BCC      0x80022bc ; rt_put_dly + 16
        0x080022d2:    f8d2c00c    ....    LDR      r12,[r2,#0xc]
        0x080022d6:    f8c0c00c    ....    STR      r12,[r0,#0xc]
        0x080022da:    60d0        .`      STR      r0,[r2,#0xc]
        0x080022dc:    6102        .a      STR      r2,[r0,#0x10]
        0x080022de:    f8d0c00c    ....    LDR      r12,[r0,#0xc]
        0x080022e2:    f1bc0f00    ....    CMP      r12,#0
        0x080022e6:    bf18        ..      IT       NE
        0x080022e8:    f8cc0010    ....    STRNE    r0,[r12,#0x10]
        0x080022ec:    1a59        Y.      SUBS     r1,r3,r1
        0x080022ee:    8281        ..      STRH     r1,[r0,#0x14]
        0x080022f0:    8a90        ..      LDRH     r0,[r2,#0x14]
        0x080022f2:    1a40        @.      SUBS     r0,r0,r1
        0x080022f4:    8290        ..      STRH     r0,[r2,#0x14]
        0x080022f6:    4770        pG      BX       lr
        0x080022f8:    f04f0c00    O...    MOV      r12,#0
        0x080022fc:    f8c0c00c    ....    STR      r12,[r0,#0xc]
        0x08002300:    60d0        .`      STR      r0,[r2,#0xc]
        0x08002302:    1ac9        ..      SUBS     r1,r1,r3
        0x08002304:    6102        .a      STR      r2,[r0,#0x10]
        0x08002306:    8291        ..      STRH     r1,[r2,#0x14]
        0x08002308:    f8a0c014    ....    STRH     r12,[r0,#0x14]
        0x0800230c:    4770        pG      BX       lr
    $d
        0x0800230e:    0000        ..      DCW    0
        0x08002310:    20002ce0    .,.     DCD    536882400
    $t
    i.rt_put_prio
    rt_put_prio
        0x08002314:    b410        ..      PUSH     {r4}
        0x08002316:    7802        .x      LDRB     r2,[r0,#0]
        0x08002318:    f04f0c00    O...    MOV      r12,#0
        0x0800231c:    2a02        .*      CMP      r2,#2
        0x0800231e:    bf1a        ..      ITTE     NE
        0x08002320:    2a01        .*      CMPNE    r2,#1
        0x08002322:    2a03        .*      CMPNE    r2,#3
        0x08002324:    f04f0c01    O...    MOVEQ    r12,#1
        0x08002328:    788b        .x      LDRB     r3,[r1,#2]
        0x0800232a:    6842        Bh      LDR      r2,[r0,#4]
        0x0800232c:    b122        ".      CBZ      r2,0x8002338 ; rt_put_prio + 36
        0x0800232e:    7894        .x      LDRB     r4,[r2,#2]
        0x08002330:    429c        .B      CMP      r4,r3
        0x08002332:    bf28        (.      IT       CS
        0x08002334:    4610        .F      MOVCS    r0,r2
        0x08002336:    d2f8        ..      BCS      0x800232a ; rt_put_prio + 22
        0x08002338:    604a        J`      STR      r2,[r1,#4]
        0x0800233a:    6041        A`      STR      r1,[r0,#4]
        0x0800233c:    f1bc0f00    ....    CMP      r12,#0
        0x08002340:    bf01        ..      ITTTT    EQ
        0x08002342:    2000        .       MOVEQ    r0,#0
        0x08002344:    6088        .`      STREQ    r0,[r1,#8]
        0x08002346:    bc10        ..      POPEQ    {r4}
        0x08002348:    4770        pG      BXEQ     lr
        0x0800234a:    2a00        .*      CMP      r2,#0
        0x0800234c:    bf18        ..      IT       NE
        0x0800234e:    6091        .`      STRNE    r1,[r2,#8]
        0x08002350:    6088        .`      STR      r0,[r1,#8]
        0x08002352:    bc10        ..      POP      {r4}
        0x08002354:    4770        pG      BX       lr
        0x08002356:    0000        ..      MOVS     r0,r0
    i.rt_put_rdy_first
    rt_put_rdy_first
        0x08002358:    4903        .I      LDR      r1,[pc,#12] ; [0x8002368] = 0x20002cc8
        0x0800235a:    684a        Jh      LDR      r2,[r1,#4]
        0x0800235c:    6042        B`      STR      r2,[r0,#4]
        0x0800235e:    2200        ."      MOVS     r2,#0
        0x08002360:    6082        .`      STR      r2,[r0,#8]
        0x08002362:    6048        H`      STR      r0,[r1,#4]
        0x08002364:    4770        pG      BX       lr
    $d
        0x08002366:    0000        ..      DCW    0
        0x08002368:    20002cc8    .,.     DCD    536882376
    $t
    i.rt_rmv_dly
    rt_rmv_dly
        0x0800236c:    6901        .i      LDR      r1,[r0,#0x10]
        0x0800236e:    2900        .)      CMP      r1,#0
        0x08002370:    bf08        ..      IT       EQ
        0x08002372:    4770        pG      BXEQ     lr
        0x08002374:    68c2        .h      LDR      r2,[r0,#0xc]
        0x08002376:    60ca        .`      STR      r2,[r1,#0xc]
        0x08002378:    68c3        .h      LDR      r3,[r0,#0xc]
        0x0800237a:    2200        ."      MOVS     r2,#0
        0x0800237c:    2b00        .+      CMP      r3,#0
        0x0800237e:    bf08        ..      IT       EQ
        0x08002380:    828a        ..      STRHEQ   r2,[r1,#0x14]
        0x08002382:    d007        ..      BEQ      0x8002394 ; rt_rmv_dly + 40
        0x08002384:    8a8b        ..      LDRH     r3,[r1,#0x14]
        0x08002386:    f8b0c014    ....    LDRH     r12,[r0,#0x14]
        0x0800238a:    4463        cD      ADD      r3,r3,r12
        0x0800238c:    828b        ..      STRH     r3,[r1,#0x14]
        0x0800238e:    68c3        .h      LDR      r3,[r0,#0xc]
        0x08002390:    6119        .a      STR      r1,[r3,#0x10]
        0x08002392:    60c2        .`      STR      r2,[r0,#0xc]
        0x08002394:    6102        .a      STR      r2,[r0,#0x10]
        0x08002396:    4770        pG      BX       lr
    i.rt_sem_init
    rt_sem_init
        0x08002398:    2202        ."      MOVS     r2,#2
        0x0800239a:    7002        .p      STRB     r2,[r0,#0]
        0x0800239c:    2200        ."      MOVS     r2,#0
        0x0800239e:    6042        B`      STR      r2,[r0,#4]
        0x080023a0:    8041        A.      STRH     r1,[r0,#2]
        0x080023a2:    4770        pG      BX       lr
    i.rt_sem_psh
    rt_sem_psh
        0x080023a4:    b510        ..      PUSH     {r4,lr}
        0x080023a6:    6841        Ah      LDR      r1,[r0,#4]
        0x080023a8:    b179        y.      CBZ      r1,0x80023ca ; rt_sem_psh + 38
        0x080023aa:    f7fffe58    ..X.    BL       rt_get_first ; 0x800205e
        0x080023ae:    4604        .F      MOV      r4,r0
        0x080023b0:    f7ffffdc    ....    BL       rt_rmv_dly ; 0x800236c
        0x080023b4:    2001        .       MOVS     r0,#1
        0x080023b6:    7060        `p      STRB     r0,[r4,#1]
        0x080023b8:    2003        .       MOVS     r0,#3
        0x080023ba:    f8840025    ..%.    STRB     r0,[r4,#0x25]
        0x080023be:    4621        !F      MOV      r1,r4
        0x080023c0:    e8bd4010    ...@    POP      {r4,lr}
        0x080023c4:    4803        .H      LDR      r0,[pc,#12] ; [0x80023d4] = 0x20002cc8
        0x080023c6:    f7ffbfa5    ....    B.W      rt_put_prio ; 0x8002314
        0x080023ca:    8841        A.      LDRH     r1,[r0,#2]
        0x080023cc:    1c49        I.      ADDS     r1,r1,#1
        0x080023ce:    8041        A.      STRH     r1,[r0,#2]
        0x080023d0:    bd10        ..      POP      {r4,pc}
    $d
        0x080023d2:    0000        ..      DCW    0
        0x080023d4:    20002cc8    .,.     DCD    536882376
    $t
    i.rt_stk_check
    rt_stk_check
        0x080023d8:    4806        .H      LDR      r0,[pc,#24] ; [0x80023f4] = 0x20000044
        0x080023da:    6800        .h      LDR      r0,[r0,#0]
        0x080023dc:    e9d0100b    ....    LDRD     r1,r0,[r0,#0x2c]
        0x080023e0:    4281        .B      CMP      r1,r0
        0x080023e2:    d304        ..      BCC      0x80023ee ; rt_stk_check + 22
        0x080023e4:    6800        .h      LDR      r0,[r0,#0]
        0x080023e6:    4904        .I      LDR      r1,[pc,#16] ; [0x80023f8] = 0xe25a2ea5
        0x080023e8:    4288        .B      CMP      r0,r1
        0x080023ea:    bf08        ..      IT       EQ
        0x080023ec:    4770        pG      BXEQ     lr
        0x080023ee:    2001        .       MOVS     r0,#1
        0x080023f0:    f7ffbd2a    ..*.    B.W      os_error ; 0x8001e48
    $d
        0x080023f4:    20000044    D..     DCD    536870980
        0x080023f8:    e25a2ea5    ..Z.    DCD    3797560997
    $t
    i.rt_switch_req
    rt_switch_req
        0x080023fc:    4902        .I      LDR      r1,[pc,#8] ; [0x8002408] = 0x20000044
        0x080023fe:    6048        H`      STR      r0,[r1,#4]
        0x08002400:    2102        .!      MOVS     r1,#2
        0x08002402:    7041        Ap      STRB     r1,[r0,#1]
        0x08002404:    4770        pG      BX       lr
    $d
        0x08002406:    0000        ..      DCW    0
        0x08002408:    20000044    D..     DCD    536870980
    $t
    i.rt_sys_init
    rt_sys_init
        0x0800240c:    e92d4ff7    -..O    PUSH     {r0-r2,r4-r11,lr}
        0x08002410:    f8dfc15c    ..\.    LDR      r12,[pc,#348] ; [0x8002570] = 0x8002730
        0x08002414:    4690        .F      MOV      r8,r2
        0x08002416:    4689        .F      MOV      r9,r1
        0x08002418:    f8bc0000    ....    LDRH     r0,[r12,#0]
        0x0800241c:    2500        .%      MOVS     r5,#0
        0x0800241e:    b1c0        ..      CBZ      r0,0x8002452 ; rt_sys_init + 70
        0x08002420:    f89c0000    ....    LDRB     r0,[r12,#0]
        0x08002424:    2300        .#      MOVS     r3,#0
        0x08002426:    4a53        SJ      LDR      r2,[pc,#332] ; [0x8002574] = 0x20002ac4
        0x08002428:    f0100001    ....    ANDS     r0,r0,#1
        0x0800242c:    bf1c        ..      ITT      NE
        0x0800242e:    6015        .`      STRNE    r5,[r2,#0]
        0x08002430:    2301        .#      MOVNE    r3,#1
        0x08002432:    f8bc1000    ....    LDRH     r1,[r12,#0]
        0x08002436:    4288        .B      CMP      r0,r1
        0x08002438:    d20b        ..      BCS      0x8002452 ; rt_sys_init + 70
        0x0800243a:    bf00        ..      NOP      
        0x0800243c:    1c59        Y.      ADDS     r1,r3,#1
        0x0800243e:    f8425023    B.#P    STR      r5,[r2,r3,LSL #2]
        0x08002442:    f8425021    B.!P    STR      r5,[r2,r1,LSL #2]
        0x08002446:    f8bc1000    ....    LDRH     r1,[r12,#0]
        0x0800244a:    1c9b        ..      ADDS     r3,r3,#2
        0x0800244c:    1c80        ..      ADDS     r0,r0,#2
        0x0800244e:    4288        .B      CMP      r0,r1
        0x08002450:    d3f4        ..      BCC      0x800243c ; rt_sys_init + 48
        0x08002452:    4849        IH      LDR      r0,[pc,#292] ; [0x8002578] = 0x8002748
        0x08002454:    2238        8"      MOVS     r2,#0x38
        0x08002456:    8801        ..      LDRH     r1,[r0,#0]
        0x08002458:    4848        HH      LDR      r0,[pc,#288] ; [0x800257c] = 0x20001c60
        0x0800245a:    f7fffa32    ..2.    BL       _init_box ; 0x80018c2
        0x0800245e:    4848        HH      LDR      r0,[pc,#288] ; [0x8002580] = 0x8002734
        0x08002460:    8800        ..      LDRH     r0,[r0,#0]
        0x08002462:    b280        ..      UXTH     r0,r0
        0x08002464:    f0404200    @..B    ORR      r2,r0,#0x80000000
        0x08002468:    4846        FH      LDR      r0,[pc,#280] ; [0x8002584] = 0x800274c
        0x0800246a:    6801        .h      LDR      r1,[r0,#0]
        0x0800246c:    4846        FH      LDR      r0,[pc,#280] ; [0x8002588] = 0x20001e30
        0x0800246e:    f7fffa28    ..(.    BL       _init_box ; 0x80018c2
        0x08002472:    4846        FH      LDR      r0,[pc,#280] ; [0x800258c] = 0x8002752
        0x08002474:    2208        ."      MOVS     r2,#8
        0x08002476:    8801        ..      LDRH     r1,[r0,#0]
        0x08002478:    4845        EH      LDR      r0,[pc,#276] ; [0x8002590] = 0x2000000c
        0x0800247a:    6800        .h      LDR      r0,[r0,#0]
        0x0800247c:    f7fffa21    ..!.    BL       _init_box ; 0x80018c2
        0x08002480:    4e44        DN      LDR      r6,[pc,#272] ; [0x8002594] = 0x20002cf8
        0x08002482:    27ff        .'      MOVS     r7,#0xff
        0x08002484:    4634        4F      MOV      r4,r6
        0x08002486:    70f7        .p      STRB     r7,[r6,#3]
        0x08002488:    8535        5.      STRH     r5,[r6,#0x28]
        0x0800248a:    7025        %p      STRB     r5,[r4,#0]
        0x0800248c:    f04f0a01    O...    MOV      r10,#1
        0x08002490:    f884a001    ....    STRB     r10,[r4,#1]
        0x08002494:    70a5        .p      STRB     r5,[r4,#2]
        0x08002496:    f8845024    ..$P    STRB     r5,[r4,#0x24]
        0x0800249a:    6065        e`      STR      r5,[r4,#4]
        0x0800249c:    60a5        .`      STR      r5,[r4,#8]
        0x0800249e:    60e5        .`      STR      r5,[r4,#0xc]
        0x080024a0:    6125        %a      STR      r5,[r4,#0x10]
        0x080024a2:    6225        %b      STR      r5,[r4,#0x20]
        0x080024a4:    82a5        ..      STRH     r5,[r4,#0x14]
        0x080024a6:    82e5        ..      STRH     r5,[r4,#0x16]
        0x080024a8:    8325        %.      STRH     r5,[r4,#0x18]
        0x080024aa:    8365        e.      STRH     r5,[r4,#0x1a]
        0x080024ac:    f8845025    ..%P    STRB     r5,[r4,#0x25]
        0x080024b0:    f8dfb0e4    ....    LDR      r11,[pc,#228] ; [0x8002598] = 0x8001e4b
        0x080024b4:    f8845026    ..&P    STRB     r5,[r4,#0x26]
        0x080024b8:    4833        3H      LDR      r0,[pc,#204] ; [0x8002588] = 0x20001e30
        0x080024ba:    f7fffcdd    ....    BL       rt_alloc_box ; 0x8001e78
        0x080024be:    6320         c      STR      r0,[r4,#0x30]
        0x080024c0:    4659        YF      MOV      r1,r11
        0x080024c2:    4620         F      MOV      r0,r4
        0x080024c4:    f7fffde2    ....    BL       rt_init_stack ; 0x800208c
        0x080024c8:    4834        4H      LDR      r0,[pc,#208] ; [0x800259c] = 0x20002cc8
        0x080024ca:    2104        .!      MOVS     r1,#4
        0x080024cc:    7001        .p      STRB     r1,[r0,#0]
        0x080024ce:    6045        E`      STR      r5,[r0,#4]
        0x080024d0:    4833        3H      LDR      r0,[pc,#204] ; [0x80025a0] = 0x20002ce0
        0x080024d2:    7001        .p      STRB     r1,[r0,#0]
        0x080024d4:    60c5        .`      STR      r5,[r0,#0xc]
        0x080024d6:    6105        .a      STR      r5,[r0,#0x10]
        0x080024d8:    8285        ..      STRH     r5,[r0,#0x14]
        0x080024da:    6af0        .j      LDR      r0,[r6,#0x2c]
        0x080024dc:    3020         0      ADDS     r0,r0,#0x20
        0x080024de:    f7fdfe0f    ....    BL       rt_set_PSP ; 0x8000100
        0x080024e2:    4830        0H      LDR      r0,[pc,#192] ; [0x80025a4] = 0x20000044
        0x080024e4:    4931        1I      LDR      r1,[pc,#196] ; [0x80025ac] = 0x8002750
        0x080024e6:    6006        .`      STR      r6,[r0,#0]
        0x080024e8:    2002        .       MOVS     r0,#2
        0x080024ea:    7070        pp      STRB     r0,[r6,#1]
        0x080024ec:    482e        .H      LDR      r0,[pc,#184] ; [0x80025a8] = 0x20002a40
        0x080024ee:    7005        .p      STRB     r5,[r0,#0]
        0x080024f0:    7045        Ep      STRB     r5,[r0,#1]
        0x080024f2:    7809        .x      LDRB     r1,[r1,#0]
        0x080024f4:    70c1        .p      STRB     r1,[r0,#3]
        0x080024f6:    f7fffdc7    ....    BL       rt_init_robin ; 0x8002088
        0x080024fa:    482d        -H      LDR      r0,[pc,#180] ; [0x80025b0] = 0xe000ed20
        0x080024fc:    6801        .h      LDR      r1,[r0,#0]
        0x080024fe:    f441017f    A...    ORR      r1,r1,#0xff0000
        0x08002502:    6001        .`      STR      r1,[r0,#0]
        0x08002504:    6800        .h      LDR      r0,[r0,#0]
        0x08002506:    0639        9.      LSLS     r1,r7,#24
        0x08002508:    ea012000    ...     AND      r0,r1,r0,LSL #8
        0x0800250c:    4929        )I      LDR      r1,[pc,#164] ; [0x80025b4] = 0xe000ed0c
        0x0800250e:    43c0        .C      MVNS     r0,r0
        0x08002510:    fab0f080    ....    CLZ      r0,r0
        0x08002514:    6809        .h      LDR      r1,[r1,#0]
        0x08002516:    f1c00008    ....    RSB      r0,r0,#8
        0x0800251a:    f3c12102    ...!    UBFX     r1,r1,#8,#3
        0x0800251e:    4281        .B      CMP      r1,r0
        0x08002520:    bfa8        ..      IT       GE
        0x08002522:    1c48        H.      ADDGE    r0,r1,#1
        0x08002524:    4924        $I      LDR      r1,[pc,#144] ; [0x80025b8] = 0xe000ed1c
        0x08002526:    680a        .h      LDR      r2,[r1,#0]
        0x08002528:    f06f7380    o..s    MVN      r3,#0x1000000
        0x0800252c:    fa03f000    ....    LSL      r0,r3,r0
        0x08002530:    f3620017    b...    BFI      r0,r2,#0,#24
        0x08002534:    6008        .`      STR      r0,[r1,#0]
        0x08002536:    f7fffc89    ....    BL       os_tick_init ; 0x8001e4c
        0x0800253a:    4920         I      LDR      r1,[pc,#128] ; [0x80025bc] = 0x20000040
        0x0800253c:    2800        .(      CMP      r0,#0
        0x0800253e:    6008        .`      STR      r0,[r1,#0]
        0x08002540:    db0d        ..      BLT      0x800255e ; rt_sys_init + 338
        0x08002542:    f10021e0    ...!    ADD      r1,r0,#0xe000e000
        0x08002546:    f8817400    ...t    STRB     r7,[r1,#0x400]
        0x0800254a:    f000011f    ....    AND      r1,r0,#0x1f
        0x0800254e:    fa0af101    ....    LSL      r1,r10,r1
        0x08002552:    1140        @.      ASRS     r0,r0,#5
        0x08002554:    0080        ..      LSLS     r0,r0,#2
        0x08002556:    f10020e0    ...     ADD      r0,r0,#0xe000e000
        0x0800255a:    f8c01100    ....    STR      r1,[r0,#0x100]
        0x0800255e:    9800        ..      LDR      r0,[sp,#0]
        0x08002560:    b003        ..      ADD      sp,sp,#0xc
        0x08002562:    4642        BF      MOV      r2,r8
        0x08002564:    4649        IF      MOV      r1,r9
        0x08002566:    e8bd4ff0    ...O    POP      {r4-r11,lr}
        0x0800256a:    2300        .#      MOVS     r3,#0
        0x0800256c:    f000b86a    ..j.    B.W      rt_tsk_create ; 0x8002644
    $d
        0x08002570:    08002730    0'..    DCD    134227760
        0x08002574:    20002ac4    .*.     DCD    536881860
        0x08002578:    08002748    H'..    DCD    134227784
        0x0800257c:    20001c60    `..     DCD    536878176
        0x08002580:    08002734    4'..    DCD    134227764
        0x08002584:    0800274c    L'..    DCD    134227788
        0x08002588:    20001e30    0..     DCD    536878640
        0x0800258c:    08002752    R'..    DCD    134227794
        0x08002590:    2000000c    ...     DCD    536870924
        0x08002594:    20002cf8    .,.     DCD    536882424
        0x08002598:    08001e4b    K...    DCD    134225483
        0x0800259c:    20002cc8    .,.     DCD    536882376
        0x080025a0:    20002ce0    .,.     DCD    536882400
        0x080025a4:    20000044    D..     DCD    536870980
        0x080025a8:    20002a40    @*.     DCD    536881728
        0x080025ac:    08002750    P'..    DCD    134227792
        0x080025b0:    e000ed20     ...    DCD    3758157088
        0x080025b4:    e000ed0c    ....    DCD    3758157068
        0x080025b8:    e000ed1c    ....    DCD    3758157084
        0x080025bc:    20000040    @..     DCD    536870976
    $t
    i.rt_systick
    rt_systick
        0x080025c0:    480c        .H      LDR      r0,[pc,#48] ; [0x80025f4] = 0x20000044
        0x080025c2:    b510        ..      PUSH     {r4,lr}
        0x080025c4:    6802        .h      LDR      r2,[r0,#0]
        0x080025c6:    2101        .!      MOVS     r1,#1
        0x080025c8:    7051        Qp      STRB     r1,[r2,#1]
        0x080025ca:    6800        .h      LDR      r0,[r0,#0]
        0x080025cc:    f7fffec4    ....    BL       rt_put_rdy_first ; 0x8002358
        0x080025d0:    f7fffc7c    ..|.    BL       rt_chk_robin ; 0x8001ecc
        0x080025d4:    4808        .H      LDR      r0,[pc,#32] ; [0x80025f8] = 0x2000004c
        0x080025d6:    6801        .h      LDR      r1,[r0,#0]
        0x080025d8:    1c49        I.      ADDS     r1,r1,#1
        0x080025da:    6001        .`      STR      r1,[r0,#0]
        0x080025dc:    f7fffc78    ..x.    BL       rt_dec_dly ; 0x8001ed0
        0x080025e0:    f000f80e    ....    BL       rt_tmr_tick ; 0x8002600
        0x080025e4:    4805        .H      LDR      r0,[pc,#20] ; [0x80025fc] = 0x20002cc8
        0x080025e6:    f7fffd3a    ..:.    BL       rt_get_first ; 0x800205e
        0x080025ea:    e8bd4010    ...@    POP      {r4,lr}
        0x080025ee:    f7ffbf05    ....    B.W      rt_switch_req ; 0x80023fc
    $d
        0x080025f2:    0000        ..      DCW    0
        0x080025f4:    20000044    D..     DCD    536870980
        0x080025f8:    2000004c    L..     DCD    536870988
        0x080025fc:    20002cc8    .,.     DCD    536882376
    $t
    i.rt_tmr_tick
    rt_tmr_tick
        0x08002600:    b570        p.      PUSH     {r4-r6,lr}
        0x08002602:    4c0e        .L      LDR      r4,[pc,#56] ; [0x800263c] = 0x20000050
        0x08002604:    6820         h      LDR      r0,[r4,#0]
        0x08002606:    2800        .(      CMP      r0,#0
        0x08002608:    bf08        ..      IT       EQ
        0x0800260a:    bd70        p.      POPEQ    {r4-r6,pc}
        0x0800260c:    88a0        ..      LDRH     r0,[r4,#4]
        0x0800260e:    4e0c        .N      LDR      r6,[pc,#48] ; [0x8002640] = 0x2000000c
        0x08002610:    1e40        @.      SUBS     r0,r0,#1
        0x08002612:    80a0        ..      STRH     r0,[r4,#4]
        0x08002614:    e00a        ..      B        0x800262c ; rt_tmr_tick + 44
        0x08002616:    88e8        ..      LDRH     r0,[r5,#6]
        0x08002618:    f7fffc2d    ..-.    BL       os_tmr_call ; 0x8001e76
        0x0800261c:    88a8        ..      LDRH     r0,[r5,#4]
        0x0800261e:    80a0        ..      STRH     r0,[r4,#4]
        0x08002620:    6828        (h      LDR      r0,[r5,#0]
        0x08002622:    6020         `      STR      r0,[r4,#0]
        0x08002624:    4629        )F      MOV      r1,r5
        0x08002626:    6830        0h      LDR      r0,[r6,#0]
        0x08002628:    f7fffd08    ....    BL       rt_free_box ; 0x800203c
        0x0800262c:    88a0        ..      LDRH     r0,[r4,#4]
        0x0800262e:    2800        .(      CMP      r0,#0
        0x08002630:    bf18        ..      IT       NE
        0x08002632:    bd70        p.      POPNE    {r4-r6,pc}
        0x08002634:    6825        %h      LDR      r5,[r4,#0]
        0x08002636:    2d00        .-      CMP      r5,#0
        0x08002638:    d1ed        ..      BNE      0x8002616 ; rt_tmr_tick + 22
        0x0800263a:    bd70        p.      POP      {r4-r6,pc}
    $d
        0x0800263c:    20000050    P..     DCD    536870992
        0x08002640:    2000000c    ...     DCD    536870924
    $t
    i.rt_tsk_create
    rt_tsk_create
        0x08002644:    e92d41f0    -..A    PUSH     {r4-r8,lr}
        0x08002648:    461e        .F      MOV      r6,r3
        0x0800264a:    4690        .F      MOV      r8,r2
        0x0800264c:    4607        .F      MOV      r7,r0
        0x0800264e:    460c        .F      MOV      r4,r1
        0x08002650:    f0110fff    ....    TST      r1,#0xff
        0x08002654:    bf08        ..      IT       EQ
        0x08002656:    1c4c        L.      ADDEQ    r4,r1,#1
        0x08002658:    4830        0H      LDR      r0,[pc,#192] ; [0x800271c] = 0x20001c60
        0x0800265a:    f7fffc0d    ....    BL       rt_alloc_box ; 0x8001e78
        0x0800265e:    0005        ..      MOVS     r5,r0
        0x08002660:    bf08        ..      IT       EQ
        0x08002662:    e8bd81f0    ....    POPEQ    {r4-r8,pc}
        0x08002666:    f3c4200f    ...     UBFX     r0,r4,#8,#16
        0x0800266a:    f8c58030    ..0.    STR      r8,[r5,#0x30]
        0x0800266e:    8528        (.      STRH     r0,[r5,#0x28]
        0x08002670:    61ee        .a      STR      r6,[r5,#0x1c]
        0x08002672:    2600        .&      MOVS     r6,#0
        0x08002674:    702e        .p      STRB     r6,[r5,#0]
        0x08002676:    2101        .!      MOVS     r1,#1
        0x08002678:    7069        ip      STRB     r1,[r5,#1]
        0x0800267a:    70ac        .p      STRB     r4,[r5,#2]
        0x0800267c:    f8854024    ..$@    STRB     r4,[r5,#0x24]
        0x08002680:    606e        n`      STR      r6,[r5,#4]
        0x08002682:    60ae        .`      STR      r6,[r5,#8]
        0x08002684:    60ee        .`      STR      r6,[r5,#0xc]
        0x08002686:    612e        .a      STR      r6,[r5,#0x10]
        0x08002688:    622e        .b      STR      r6,[r5,#0x20]
        0x0800268a:    82ae        ..      STRH     r6,[r5,#0x14]
        0x0800268c:    82ee        ..      STRH     r6,[r5,#0x16]
        0x0800268e:    832e        ..      STRH     r6,[r5,#0x18]
        0x08002690:    836e        n.      STRH     r6,[r5,#0x1a]
        0x08002692:    f8856025    ..%`    STRB     r6,[r5,#0x25]
        0x08002696:    f8856026    ..&`    STRB     r6,[r5,#0x26]
        0x0800269a:    b918        ..      CBNZ     r0,0x80026a4 ; rt_tsk_create + 96
        0x0800269c:    4820         H      LDR      r0,[pc,#128] ; [0x8002720] = 0x20001e30
        0x0800269e:    f7fffbeb    ....    BL       rt_alloc_box ; 0x8001e78
        0x080026a2:    6328        (c      STR      r0,[r5,#0x30]
        0x080026a4:    4639        9F      MOV      r1,r7
        0x080026a6:    4628        (F      MOV      r0,r5
        0x080026a8:    f7fffcf0    ....    BL       rt_init_stack ; 0x800208c
        0x080026ac:    491d        .I      LDR      r1,[pc,#116] ; [0x8002724] = 0x8002730
        0x080026ae:    8808        ..      LDRH     r0,[r1,#0]
        0x080026b0:    1c43        C.      ADDS     r3,r0,#1
        0x080026b2:    481d        .H      LDR      r0,[pc,#116] ; [0x8002728] = 0x20002ac4
        0x080026b4:    2b01        .+      CMP      r3,#1
        0x080026b6:    d91e        ..      BLS      0x80026f6 ; rt_tsk_create + 178
        0x080026b8:    7809        .x      LDRB     r1,[r1,#0]
        0x080026ba:    2401        .$      MOVS     r4,#1
        0x080026bc:    f0010c01    ....    AND      r12,r1,#1
        0x080026c0:    f10c0101    ....    ADD      r1,r12,#1
        0x080026c4:    2901        .)      CMP      r1,#1
        0x080026c6:    d907        ..      BLS      0x80026d8 ; rt_tsk_create + 148
        0x080026c8:    eb000284    ....    ADD      r2,r0,r4,LSL #2
        0x080026cc:    f8522c04    R..,    LDR      r2,[r2,#-4]
        0x080026d0:    b192        ..      CBZ      r2,0x80026f8 ; rt_tsk_create + 180
        0x080026d2:    1c64        d.      ADDS     r4,r4,#1
        0x080026d4:    428c        .B      CMP      r4,r1
        0x080026d6:    d3f7        ..      BCC      0x80026c8 ; rt_tsk_create + 132
        0x080026d8:    460c        .F      MOV      r4,r1
        0x080026da:    4299        .B      CMP      r1,r3
        0x080026dc:    d20b        ..      BCS      0x80026f6 ; rt_tsk_create + 178
        0x080026de:    bf00        ..      NOP      
        0x080026e0:    eb000184    ....    ADD      r1,r0,r4,LSL #2
        0x080026e4:    f8511c04    Q...    LDR      r1,[r1,#-4]
        0x080026e8:    b131        1.      CBZ      r1,0x80026f8 ; rt_tsk_create + 180
        0x080026ea:    f8501024    P.$.    LDR      r1,[r0,r4,LSL #2]
        0x080026ee:    b191        ..      CBZ      r1,0x8002716 ; rt_tsk_create + 210
        0x080026f0:    1ca4        ..      ADDS     r4,r4,#2
        0x080026f2:    429c        .B      CMP      r4,r3
        0x080026f4:    d3f4        ..      BCC      0x80026e0 ; rt_tsk_create + 156
        0x080026f6:    4634        4F      MOV      r4,r6
        0x080026f8:    eb000084    ....    ADD      r0,r0,r4,LSL #2
        0x080026fc:    f8405c04    @..\    STR      r5,[r0,#-4]
        0x08002700:    70ec        .p      STRB     r4,[r5,#3]
        0x08002702:    4628        (F      MOV      r0,r5
        0x08002704:    f7fffc46    ..F.    BL       rt_dispatch ; 0x8001f94
        0x08002708:    4808        .H      LDR      r0,[pc,#32] ; [0x800272c] = 0x20000044
        0x0800270a:    6800        .h      LDR      r0,[r0,#0]
        0x0800270c:    f8804025    ..%@    STRB     r4,[r0,#0x25]
        0x08002710:    4620         F      MOV      r0,r4
        0x08002712:    e8bd81f0    ....    POP      {r4-r8,pc}
        0x08002716:    1c64        d.      ADDS     r4,r4,#1
        0x08002718:    e7ee        ..      B        0x80026f8 ; rt_tsk_create + 180
    $d
        0x0800271a:    0000        ..      DCW    0
        0x0800271c:    20001c60    `..     DCD    536878176
        0x08002720:    20001e30    0..     DCD    536878640
        0x08002724:    08002730    0'..    DCD    134227760
        0x08002728:    20002ac4    .*.     DCD    536881860
        0x0800272c:    20000044    D..     DCD    536870980
    $d.realdata
    .constdata
    os_maxtaskrun
        0x08002730:    00000008    ....    DCD    8
    .constdata
    os_stackinfo
        0x08002734:    01060400    ....    DCD    17171456
    .constdata
    os_trv
        0x08002738:    0001193f    ?...    DCD    71999
    .constdata
    os_flags
        0x0800273c:    00000001    ....    DCD    1
    .constdata
    __tagsym$$used
    os_clockrate
        0x08002740:    000003e8    ....    DCD    1000
    __tagsym$$used
    os_timernum
        0x08002744:    00000005    ....    DCD    5
    .constdata
    mp_tcb_size
        0x08002748:    000001cc    ....    DCD    460
    .constdata
    mp_stk_size
        0x0800274c:    00000c10    ....    DCD    3088
    .constdata
    os_fifo_size
        0x08002750:    0010        ..      DCW    16
    .constdata
    mp_tmr_size
        0x08002752:    0034        4.      DCW    52
    .constdata
    __tagsym$$used
    RL_RTX_Version
        0x08002754:    00040049    I...    DCD    262217
    Region$$Table$$Base
        0x08002758:    08002778    x'..    DCD    134227832
        0x0800275c:    20000000    ...     DCD    536870912
        0x08002760:    0000005c    \...    DCD    92
        0x08002764:    080018a4    ....    DCD    134224036
        0x08002768:    080027d4    .'..    DCD    134227924
        0x0800276c:    2000005c    \..     DCD    536871004
        0x08002770:    000030d4    .0..    DCD    12500
        0x08002774:    080018b4    ....    DCD    134224052
    Region$$Table$$Limit

** Section #2 'RW_IRAM1' (SHT_PROGBITS) [SHF_ALLOC + SHF_WRITE]
    Size   : 92 bytes (alignment 4)
    Address: 0x20000000


** Section #3 'RW_IRAM1' (SHT_NOBITS) [SHF_ALLOC + SHF_WRITE]
    Size   : 12500 bytes (alignment 8)
    Address: 0x2000005c


** Section #4 '.debug_abbrev' (SHT_PROGBITS)
    Size   : 1476 bytes


** Section #5 '.debug_frame' (SHT_PROGBITS)
    Size   : 3576 bytes


** Section #6 '.debug_info' (SHT_PROGBITS)
    Size   : 54360 bytes


** Section #7 '.debug_line' (SHT_PROGBITS)
    Size   : 20204 bytes


** Section #8 '.debug_loc' (SHT_PROGBITS)
    Size   : 7892 bytes


** Section #9 '.debug_macinfo' (SHT_PROGBITS)
    Size   : 253952 bytes


** Section #10 '.debug_pubnames' (SHT_PROGBITS)
    Size   : 4993 bytes


** Section #11 '.symtab' (SHT_SYMTAB)
    Size   : 11296 bytes (alignment 4)
    String table #12 '.strtab'
    Last local symbol no. 450


** Section #12 '.strtab' (SHT_STRTAB)
    Size   : 9788 bytes


** Section #13 '.note' (SHT_NOTE)
    Size   : 28 bytes (alignment 4)


** Section #14 '.comment' (SHT_PROGBITS)
    Size   : 47732 bytes


** Section #15 '.shstrtab' (SHT_STRTAB)
    Size   : 156 bytes


